
/home/sazc/risc_v/git_source/am-kernels/tests/cpu-tests/build/hello-str-riscv64-mycpu.elf:     file format elf64-littleriscv


Disassembly of section .text:

0000000080000000 <_start>:
    80000000:	00000413          	li	s0,0
    80000004:	0000a117          	auipc	sp,0xa
    80000008:	ffc10113          	addi	sp,sp,-4 # 8000a000 <_end>
    8000000c:	0fc000ef          	jal	ra,80000108 <_trm_init>

0000000080000010 <check>:
    80000010:	00050463          	beqz	a0,80000018 <check+0x8>
    80000014:	00008067          	ret
    80000018:	ff010113          	addi	sp,sp,-16
    8000001c:	00100513          	li	a0,1
    80000020:	00113423          	sd	ra,8(sp)
    80000024:	0d8000ef          	jal	ra,800000fc <halt>

0000000080000028 <main>:
    80000028:	ff010113          	addi	sp,sp,-16
    8000002c:	00001617          	auipc	a2,0x1
    80000030:	5bc60613          	addi	a2,a2,1468 # 800015e8 <_etext+0x4>
    80000034:	00001597          	auipc	a1,0x1
    80000038:	5c458593          	addi	a1,a1,1476 # 800015f8 <_etext+0x14>
    8000003c:	00002517          	auipc	a0,0x2
    80000040:	89450513          	addi	a0,a0,-1900 # 800018d0 <buf>
    80000044:	00113423          	sd	ra,8(sp)
    80000048:	70d000ef          	jal	ra,80000f54 <sprintf_>
    8000004c:	00001597          	auipc	a1,0x1
    80000050:	59c58593          	addi	a1,a1,1436 # 800015e8 <_etext+0x4>
    80000054:	00002517          	auipc	a0,0x2
    80000058:	87c50513          	addi	a0,a0,-1924 # 800018d0 <buf>
    8000005c:	0cc000ef          	jal	ra,80000128 <strcmp>
    80000060:	00153513          	seqz	a0,a0
    80000064:	fadff0ef          	jal	ra,80000010 <check>
    80000068:	00200713          	li	a4,2
    8000006c:	00100693          	li	a3,1
    80000070:	00100613          	li	a2,1
    80000074:	00001597          	auipc	a1,0x1
    80000078:	58c58593          	addi	a1,a1,1420 # 80001600 <_etext+0x1c>
    8000007c:	00002517          	auipc	a0,0x2
    80000080:	85450513          	addi	a0,a0,-1964 # 800018d0 <buf>
    80000084:	6d1000ef          	jal	ra,80000f54 <sprintf_>
    80000088:	00001597          	auipc	a1,0x1
    8000008c:	58858593          	addi	a1,a1,1416 # 80001610 <_etext+0x2c>
    80000090:	00002517          	auipc	a0,0x2
    80000094:	84050513          	addi	a0,a0,-1984 # 800018d0 <buf>
    80000098:	090000ef          	jal	ra,80000128 <strcmp>
    8000009c:	00153513          	seqz	a0,a0
    800000a0:	f71ff0ef          	jal	ra,80000010 <check>
    800000a4:	00c00713          	li	a4,12
    800000a8:	00a00693          	li	a3,10
    800000ac:	00200613          	li	a2,2
    800000b0:	00001597          	auipc	a1,0x1
    800000b4:	55058593          	addi	a1,a1,1360 # 80001600 <_etext+0x1c>
    800000b8:	00002517          	auipc	a0,0x2
    800000bc:	81850513          	addi	a0,a0,-2024 # 800018d0 <buf>
    800000c0:	695000ef          	jal	ra,80000f54 <sprintf_>
    800000c4:	00001597          	auipc	a1,0x1
    800000c8:	55c58593          	addi	a1,a1,1372 # 80001620 <_etext+0x3c>
    800000cc:	00002517          	auipc	a0,0x2
    800000d0:	80450513          	addi	a0,a0,-2044 # 800018d0 <buf>
    800000d4:	054000ef          	jal	ra,80000128 <strcmp>
    800000d8:	00153513          	seqz	a0,a0
    800000dc:	f35ff0ef          	jal	ra,80000010 <check>
    800000e0:	00813083          	ld	ra,8(sp)
    800000e4:	00000513          	li	a0,0
    800000e8:	01010113          	addi	sp,sp,16
    800000ec:	00008067          	ret

00000000800000f0 <putch>:
    800000f0:	00050513          	mv	a0,a0
    800000f4:	006a                	c.slli	zero,0x1a
    800000f6:	0000                	unimp
    800000f8:	00008067          	ret

00000000800000fc <halt>:
    800000fc:	00050513          	mv	a0,a0
    80000100:	0000006b          	0x6b
    80000104:	0000006f          	j	80000104 <halt+0x8>

0000000080000108 <_trm_init>:
    80000108:	ff010113          	addi	sp,sp,-16
    8000010c:	00001517          	auipc	a0,0x1
    80000110:	7bc50513          	addi	a0,a0,1980 # 800018c8 <mainargs>
    80000114:	00113423          	sd	ra,8(sp)
    80000118:	f11ff0ef          	jal	ra,80000028 <main>
    8000011c:	00050513          	mv	a0,a0
    80000120:	0000006b          	0x6b
    80000124:	0000006f          	j	80000124 <_trm_init+0x1c>

0000000080000128 <strcmp>:
    80000128:	ff010113          	addi	sp,sp,-16
    8000012c:	00813023          	sd	s0,0(sp)
    80000130:	00113423          	sd	ra,8(sp)
    80000134:	00001417          	auipc	s0,0x1
    80000138:	54c40413          	addi	s0,s0,1356 # 80001680 <_etext+0x9c>
    8000013c:	04100513          	li	a0,65
    80000140:	00140413          	addi	s0,s0,1
    80000144:	fadff0ef          	jal	ra,800000f0 <putch>
    80000148:	00044503          	lbu	a0,0(s0)
    8000014c:	fe051ae3          	bnez	a0,80000140 <strcmp+0x18>
    80000150:	00001417          	auipc	s0,0x1
    80000154:	54040413          	addi	s0,s0,1344 # 80001690 <_etext+0xac>
    80000158:	04e00513          	li	a0,78
    8000015c:	00140413          	addi	s0,s0,1
    80000160:	f91ff0ef          	jal	ra,800000f0 <putch>
    80000164:	00044503          	lbu	a0,0(s0)
    80000168:	fe051ae3          	bnez	a0,8000015c <strcmp+0x34>
    8000016c:	00001417          	auipc	s0,0x1
    80000170:	4c440413          	addi	s0,s0,1220 # 80001630 <_etext+0x4c>
    80000174:	02000513          	li	a0,32
    80000178:	00140413          	addi	s0,s0,1
    8000017c:	f75ff0ef          	jal	ra,800000f0 <putch>
    80000180:	00044503          	lbu	a0,0(s0)
    80000184:	fe051ae3          	bnez	a0,80000178 <strcmp+0x50>
    80000188:	00100513          	li	a0,1
    8000018c:	f71ff0ef          	jal	ra,800000fc <halt>

0000000080000190 <_out_buffer>:
    80000190:	00d67663          	bleu	a3,a2,8000019c <_out_buffer+0xc>
    80000194:	00c585b3          	add	a1,a1,a2
    80000198:	00a58023          	sb	a0,0(a1)
    8000019c:	00008067          	ret

00000000800001a0 <_out_null>:
    800001a0:	00008067          	ret

00000000800001a4 <_ntoa_long>:
    800001a4:	f4010113          	addi	sp,sp,-192
    800001a8:	09413823          	sd	s4,144(sp)
    800001ac:	0c812a03          	lw	s4,200(sp)
    800001b0:	00f13c23          	sd	a5,24(sp)
    800001b4:	0c012783          	lw	a5,192(sp)
    800001b8:	05b13c23          	sd	s11,88(sp)
    800001bc:	400a7d93          	andi	s11,s4,1024
    800001c0:	00f13423          	sd	a5,8(sp)
    800001c4:	000d879b          	sext.w	a5,s11
    800001c8:	0a813823          	sd	s0,176(sp)
    800001cc:	0a913423          	sd	s1,168(sp)
    800001d0:	0b213023          	sd	s2,160(sp)
    800001d4:	09313c23          	sd	s3,152(sp)
    800001d8:	07813823          	sd	s8,112(sp)
    800001dc:	07a13023          	sd	s10,96(sp)
    800001e0:	0a113c23          	sd	ra,184(sp)
    800001e4:	09513423          	sd	s5,136(sp)
    800001e8:	09613023          	sd	s6,128(sp)
    800001ec:	07713c23          	sd	s7,120(sp)
    800001f0:	07913423          	sd	s9,104(sp)
    800001f4:	03113023          	sd	a7,32(sp)
    800001f8:	02f13423          	sd	a5,40(sp)
    800001fc:	00070c13          	mv	s8,a4
    80000200:	00050493          	mv	s1,a0
    80000204:	00058913          	mv	s2,a1
    80000208:	00060d13          	mv	s10,a2
    8000020c:	00068993          	mv	s3,a3
    80000210:	00080413          	mv	s0,a6
    80000214:	24071a63          	bnez	a4,80000468 <_ntoa_long+0x2c4>
    80000218:	fefa7713          	andi	a4,s4,-17
    8000021c:	00e13023          	sd	a4,0(sp)
    80000220:	30079c63          	bnez	a5,80000538 <_ntoa_long+0x394>
    80000224:	00013783          	ld	a5,0(sp)
    80000228:	00013823          	sd	zero,16(sp)
    8000022c:	06100a13          	li	s4,97
    80000230:	0207f793          	andi	a5,a5,32
    80000234:	24079a63          	bnez	a5,80000488 <_ntoa_long+0x2e4>
    80000238:	03010c93          	addi	s9,sp,48
    8000023c:	00100a93          	li	s5,1
    80000240:	05010b93          	addi	s7,sp,80
    80000244:	00900b13          	li	s6,9
    80000248:	ff6a0a1b          	addiw	s4,s4,-10
    8000024c:	419a8ab3          	sub	s5,s5,s9
    80000250:	0080006f          	j	80000258 <_ntoa_long+0xb4>
    80000254:	357c8e63          	beq	s9,s7,800005b0 <_ntoa_long+0x40c>
    80000258:	00040593          	mv	a1,s0
    8000025c:	000c0513          	mv	a0,s8
    80000260:	19c010ef          	jal	ra,800013fc <__umoddi3>
    80000264:	0ff57793          	andi	a5,a0,255
    80000268:	0307861b          	addiw	a2,a5,48
    8000026c:	00fa07bb          	addw	a5,s4,a5
    80000270:	0ff7f793          	andi	a5,a5,255
    80000274:	00ab6463          	bltu	s6,a0,8000027c <_ntoa_long+0xd8>
    80000278:	0ff67793          	andi	a5,a2,255
    8000027c:	000c0513          	mv	a0,s8
    80000280:	00fc8023          	sb	a5,0(s9)
    80000284:	00040593          	mv	a1,s0
    80000288:	16c010ef          	jal	ra,800013f4 <__udivdi3>
    8000028c:	019a8db3          	add	s11,s5,s9
    80000290:	00050c13          	mv	s8,a0
    80000294:	001c8c93          	addi	s9,s9,1
    80000298:	fa051ee3          	bnez	a0,80000254 <_ntoa_long+0xb0>
    8000029c:	00013783          	ld	a5,0(sp)
    800002a0:	0027fa13          	andi	s4,a5,2
    800002a4:	000a0a1b          	sext.w	s4,s4
    800002a8:	080a1863          	bnez	s4,80000338 <_ntoa_long+0x194>
    800002ac:	00013783          	ld	a5,0(sp)
    800002b0:	02016683          	lwu	a3,32(sp)
    800002b4:	00078713          	mv	a4,a5
    800002b8:	0017fa13          	andi	s4,a5,1
    800002bc:	00813783          	ld	a5,8(sp)
    800002c0:	20079a63          	bnez	a5,800004d4 <_ntoa_long+0x330>
    800002c4:	02ddfa63          	bleu	a3,s11,800002f8 <_ntoa_long+0x154>
    800002c8:	02000713          	li	a4,32
    800002cc:	02ed8663          	beq	s11,a4,800002f8 <_ntoa_long+0x154>
    800002d0:	03010793          	addi	a5,sp,48
    800002d4:	01b78733          	add	a4,a5,s11
    800002d8:	03000613          	li	a2,48
    800002dc:	02000593          	li	a1,32
    800002e0:	00c0006f          	j	800002ec <_ntoa_long+0x148>
    800002e4:	00170713          	addi	a4,a4,1
    800002e8:	00bd8863          	beq	s11,a1,800002f8 <_ntoa_long+0x154>
    800002ec:	00c70023          	sb	a2,0(a4)
    800002f0:	001d8d93          	addi	s11,s11,1
    800002f4:	fedde8e3          	bltu	s11,a3,800002e4 <_ntoa_long+0x140>
    800002f8:	040a0063          	beqz	s4,80000338 <_ntoa_long+0x194>
    800002fc:	00816603          	lwu	a2,8(sp)
    80000300:	02cdfa63          	bleu	a2,s11,80000334 <_ntoa_long+0x190>
    80000304:	03010793          	addi	a5,sp,48
    80000308:	02000813          	li	a6,32
    8000030c:	01b78733          	add	a4,a5,s11
    80000310:	03000593          	li	a1,48
    80000314:	02000513          	li	a0,32
    80000318:	010d9863          	bne	s11,a6,80000328 <_ntoa_long+0x184>
    8000031c:	1e00006f          	j	800004fc <_ntoa_long+0x358>
    80000320:	00170713          	addi	a4,a4,1
    80000324:	1cad8c63          	beq	s11,a0,800004fc <_ntoa_long+0x358>
    80000328:	00b70023          	sb	a1,0(a4)
    8000032c:	001d8d93          	addi	s11,s11,1
    80000330:	fecd98e3          	bne	s11,a2,80000320 <_ntoa_long+0x17c>
    80000334:	00000a13          	li	s4,0
    80000338:	01013783          	ld	a5,16(sp)
    8000033c:	02078c63          	beqz	a5,80000374 <_ntoa_long+0x1d0>
    80000340:	02813783          	ld	a5,40(sp)
    80000344:	22079c63          	bnez	a5,8000057c <_ntoa_long+0x3d8>
    80000348:	2a0d9c63          	bnez	s11,80000600 <_ntoa_long+0x45c>
    8000034c:	01000713          	li	a4,16
    80000350:	38e40e63          	beq	s0,a4,800006ec <_ntoa_long+0x548>
    80000354:	00200713          	li	a4,2
    80000358:	2ce40a63          	beq	s0,a4,8000062c <_ntoa_long+0x488>
    8000035c:	00000713          	li	a4,0
    80000360:	05010793          	addi	a5,sp,80
    80000364:	00e786b3          	add	a3,a5,a4
    80000368:	00170d93          	addi	s11,a4,1
    8000036c:	03000713          	li	a4,48
    80000370:	fee68023          	sb	a4,-32(a3)
    80000374:	02000713          	li	a4,32
    80000378:	02ed8e63          	beq	s11,a4,800003b4 <_ntoa_long+0x210>
    8000037c:	01813783          	ld	a5,24(sp)
    80000380:	18079863          	bnez	a5,80000510 <_ntoa_long+0x36c>
    80000384:	00013783          	ld	a5,0(sp)
    80000388:	0047f713          	andi	a4,a5,4
    8000038c:	00078693          	mv	a3,a5
    80000390:	22071c63          	bnez	a4,800005c8 <_ntoa_long+0x424>
    80000394:	00013783          	ld	a5,0(sp)
    80000398:	0087f713          	andi	a4,a5,8
    8000039c:	0e070a63          	beqz	a4,80000490 <_ntoa_long+0x2ec>
    800003a0:	05010793          	addi	a5,sp,80
    800003a4:	01b78733          	add	a4,a5,s11
    800003a8:	02000693          	li	a3,32
    800003ac:	fed70023          	sb	a3,-32(a4)
    800003b0:	001d8d93          	addi	s11,s11,1
    800003b4:	00013783          	ld	a5,0(sp)
    800003b8:	000d0a93          	mv	s5,s10
    800003bc:	0037fc93          	andi	s9,a5,3
    800003c0:	0c0c8e63          	beqz	s9,8000049c <_ntoa_long+0x2f8>
    800003c4:	03010b93          	addi	s7,sp,48
    800003c8:	01bb8433          	add	s0,s7,s11
    800003cc:	000a8b13          	mv	s6,s5
    800003d0:	fff44503          	lbu	a0,-1(s0)
    800003d4:	000b0613          	mv	a2,s6
    800003d8:	00098693          	mv	a3,s3
    800003dc:	00090593          	mv	a1,s2
    800003e0:	fff40413          	addi	s0,s0,-1
    800003e4:	000480e7          	jalr	s1
    800003e8:	001b0b13          	addi	s6,s6,1
    800003ec:	fe8b92e3          	bne	s7,s0,800003d0 <_ntoa_long+0x22c>
    800003f0:	01ba8ab3          	add	s5,s5,s11
    800003f4:	020a0a63          	beqz	s4,80000428 <_ntoa_long+0x284>
    800003f8:	00816c03          	lwu	s8,8(sp)
    800003fc:	41aa87b3          	sub	a5,s5,s10
    80000400:	0387f463          	bleu	s8,a5,80000428 <_ntoa_long+0x284>
    80000404:	001a8793          	addi	a5,s5,1
    80000408:	000a8613          	mv	a2,s5
    8000040c:	00098693          	mv	a3,s3
    80000410:	00090593          	mv	a1,s2
    80000414:	02000513          	li	a0,32
    80000418:	00078a93          	mv	s5,a5
    8000041c:	000480e7          	jalr	s1
    80000420:	41aa87b3          	sub	a5,s5,s10
    80000424:	ff87e0e3          	bltu	a5,s8,80000404 <_ntoa_long+0x260>
    80000428:	0b813083          	ld	ra,184(sp)
    8000042c:	0b013403          	ld	s0,176(sp)
    80000430:	000a8513          	mv	a0,s5
    80000434:	0a813483          	ld	s1,168(sp)
    80000438:	0a013903          	ld	s2,160(sp)
    8000043c:	09813983          	ld	s3,152(sp)
    80000440:	09013a03          	ld	s4,144(sp)
    80000444:	08813a83          	ld	s5,136(sp)
    80000448:	08013b03          	ld	s6,128(sp)
    8000044c:	07813b83          	ld	s7,120(sp)
    80000450:	07013c03          	ld	s8,112(sp)
    80000454:	06813c83          	ld	s9,104(sp)
    80000458:	06013d03          	ld	s10,96(sp)
    8000045c:	05813d83          	ld	s11,88(sp)
    80000460:	0c010113          	addi	sp,sp,192
    80000464:	00008067          	ret
    80000468:	010a7793          	andi	a5,s4,16
    8000046c:	0007879b          	sext.w	a5,a5
    80000470:	01413023          	sd	s4,0(sp)
    80000474:	00f13823          	sd	a5,16(sp)
    80000478:	00013783          	ld	a5,0(sp)
    8000047c:	06100a13          	li	s4,97
    80000480:	0207f793          	andi	a5,a5,32
    80000484:	da078ae3          	beqz	a5,80000238 <_ntoa_long+0x94>
    80000488:	04100a13          	li	s4,65
    8000048c:	dadff06f          	j	80000238 <_ntoa_long+0x94>
    80000490:	0036f693          	andi	a3,a3,3
    80000494:	000d0a93          	mv	s5,s10
    80000498:	02069a63          	bnez	a3,800004cc <_ntoa_long+0x328>
    8000049c:	00816403          	lwu	s0,8(sp)
    800004a0:	1a8df263          	bleu	s0,s11,80000644 <_ntoa_long+0x4a0>
    800004a4:	41b40433          	sub	s0,s0,s11
    800004a8:	01a40433          	add	s0,s0,s10
    800004ac:	000d0613          	mv	a2,s10
    800004b0:	00098693          	mv	a3,s3
    800004b4:	00090593          	mv	a1,s2
    800004b8:	02000513          	li	a0,32
    800004bc:	00160a93          	addi	s5,a2,1
    800004c0:	000480e7          	jalr	s1
    800004c4:	000a8613          	mv	a2,s5
    800004c8:	ff5414e3          	bne	s0,s5,800004b0 <_ntoa_long+0x30c>
    800004cc:	ee0d9ce3          	bnez	s11,800003c4 <_ntoa_long+0x220>
    800004d0:	f25ff06f          	j	800003f4 <_ntoa_long+0x250>
    800004d4:	100a0e63          	beqz	s4,800005f0 <_ntoa_long+0x44c>
    800004d8:	01813783          	ld	a5,24(sp)
    800004dc:	18079063          	bnez	a5,8000065c <_ntoa_long+0x4b8>
    800004e0:	00c77713          	andi	a4,a4,12
    800004e4:	16071c63          	bnez	a4,8000065c <_ntoa_long+0x4b8>
    800004e8:	e0ddfae3          	bleu	a3,s11,800002fc <_ntoa_long+0x158>
    800004ec:	02000713          	li	a4,32
    800004f0:	deed90e3          	bne	s11,a4,800002d0 <_ntoa_long+0x12c>
    800004f4:	00813783          	ld	a5,8(sp)
    800004f8:	e2fdfee3          	bleu	a5,s11,80000334 <_ntoa_long+0x190>
    800004fc:	01013783          	ld	a5,16(sp)
    80000500:	06079663          	bnez	a5,8000056c <_ntoa_long+0x3c8>
    80000504:	00000a13          	li	s4,0
    80000508:	02000d93          	li	s11,32
    8000050c:	ea9ff06f          	j	800003b4 <_ntoa_long+0x210>
    80000510:	05010793          	addi	a5,sp,80
    80000514:	01b78733          	add	a4,a5,s11
    80000518:	02d00693          	li	a3,45
    8000051c:	fed70023          	sb	a3,-32(a4)
    80000520:	00013783          	ld	a5,0(sp)
    80000524:	001d8d93          	addi	s11,s11,1
    80000528:	000d0a93          	mv	s5,s10
    8000052c:	0037fc93          	andi	s9,a5,3
    80000530:	e80c9ae3          	bnez	s9,800003c4 <_ntoa_long+0x220>
    80000534:	f69ff06f          	j	8000049c <_ntoa_long+0x2f8>
    80000538:	002a7a13          	andi	s4,s4,2
    8000053c:	000a0a1b          	sext.w	s4,s4
    80000540:	00000d93          	li	s11,0
    80000544:	e20a1ce3          	bnez	s4,8000037c <_ntoa_long+0x1d8>
    80000548:	00013783          	ld	a5,0(sp)
    8000054c:	00013823          	sd	zero,16(sp)
    80000550:	00000d93          	li	s11,0
    80000554:	00078713          	mv	a4,a5
    80000558:	0017fa13          	andi	s4,a5,1
    8000055c:	00813783          	ld	a5,8(sp)
    80000560:	02016683          	lwu	a3,32(sp)
    80000564:	d60780e3          	beqz	a5,800002c4 <_ntoa_long+0x120>
    80000568:	f6dff06f          	j	800004d4 <_ntoa_long+0x330>
    8000056c:	02813783          	ld	a5,40(sp)
    80000570:	14078c63          	beqz	a5,800006c8 <_ntoa_long+0x524>
    80000574:	02000d93          	li	s11,32
    80000578:	00000a13          	li	s4,0
    8000057c:	01000713          	li	a4,16
    80000580:	0ee40663          	beq	s0,a4,8000066c <_ntoa_long+0x4c8>
    80000584:	00200693          	li	a3,2
    80000588:	000d8713          	mv	a4,s11
    8000058c:	0cd40263          	beq	s0,a3,80000650 <_ntoa_long+0x4ac>
    80000590:	02000793          	li	a5,32
    80000594:	dcf716e3          	bne	a4,a5,80000360 <_ntoa_long+0x1bc>
    80000598:	00013783          	ld	a5,0(sp)
    8000059c:	02000d93          	li	s11,32
    800005a0:	000d0a93          	mv	s5,s10
    800005a4:	0037fc93          	andi	s9,a5,3
    800005a8:	e00c9ee3          	bnez	s9,800003c4 <_ntoa_long+0x220>
    800005ac:	ef1ff06f          	j	8000049c <_ntoa_long+0x2f8>
    800005b0:	00013783          	ld	a5,0(sp)
    800005b4:	02000d93          	li	s11,32
    800005b8:	0027fa13          	andi	s4,a5,2
    800005bc:	000a0a1b          	sext.w	s4,s4
    800005c0:	d60a1ce3          	bnez	s4,80000338 <_ntoa_long+0x194>
    800005c4:	ce9ff06f          	j	800002ac <_ntoa_long+0x108>
    800005c8:	05010793          	addi	a5,sp,80
    800005cc:	01b78733          	add	a4,a5,s11
    800005d0:	02b00693          	li	a3,43
    800005d4:	fed70023          	sb	a3,-32(a4)
    800005d8:	00013783          	ld	a5,0(sp)
    800005dc:	001d8d93          	addi	s11,s11,1
    800005e0:	000d0a93          	mv	s5,s10
    800005e4:	0037fc93          	andi	s9,a5,3
    800005e8:	dc0c9ee3          	bnez	s9,800003c4 <_ntoa_long+0x220>
    800005ec:	eb1ff06f          	j	8000049c <_ntoa_long+0x2f8>
    800005f0:	d4ddf4e3          	bleu	a3,s11,80000338 <_ntoa_long+0x194>
    800005f4:	02000713          	li	a4,32
    800005f8:	cced9ce3          	bne	s11,a4,800002d0 <_ntoa_long+0x12c>
    800005fc:	d3dff06f          	j	80000338 <_ntoa_long+0x194>
    80000600:	02016683          	lwu	a3,32(sp)
    80000604:	01b68663          	beq	a3,s11,80000610 <_ntoa_long+0x46c>
    80000608:	00816703          	lwu	a4,8(sp)
    8000060c:	f7b718e3          	bne	a4,s11,8000057c <_ntoa_long+0x3d8>
    80000610:	fffd8713          	addi	a4,s11,-1
    80000614:	0c070063          	beqz	a4,800006d4 <_ntoa_long+0x530>
    80000618:	01000693          	li	a3,16
    8000061c:	06d40e63          	beq	s0,a3,80000698 <_ntoa_long+0x4f4>
    80000620:	00200793          	li	a5,2
    80000624:	f6f416e3          	bne	s0,a5,80000590 <_ntoa_long+0x3ec>
    80000628:	00070d93          	mv	s11,a4
    8000062c:	05010793          	addi	a5,sp,80
    80000630:	01b786b3          	add	a3,a5,s11
    80000634:	06200793          	li	a5,98
    80000638:	001d8713          	addi	a4,s11,1
    8000063c:	fef68023          	sb	a5,-32(a3)
    80000640:	f51ff06f          	j	80000590 <_ntoa_long+0x3ec>
    80000644:	000d0a93          	mv	s5,s10
    80000648:	d60d9ee3          	bnez	s11,800003c4 <_ntoa_long+0x220>
    8000064c:	da9ff06f          	j	800003f4 <_ntoa_long+0x250>
    80000650:	02000713          	li	a4,32
    80000654:	d6ed80e3          	beq	s11,a4,800003b4 <_ntoa_long+0x210>
    80000658:	fd5ff06f          	j	8000062c <_ntoa_long+0x488>
    8000065c:	00813783          	ld	a5,8(sp)
    80000660:	fff7879b          	addiw	a5,a5,-1
    80000664:	00f13423          	sd	a5,8(sp)
    80000668:	e81ff06f          	j	800004e8 <_ntoa_long+0x344>
    8000066c:	00013783          	ld	a5,0(sp)
    80000670:	0207f713          	andi	a4,a5,32
    80000674:	02071a63          	bnez	a4,800006a8 <_ntoa_long+0x504>
    80000678:	02000713          	li	a4,32
    8000067c:	d2ed8ce3          	beq	s11,a4,800003b4 <_ntoa_long+0x210>
    80000680:	05010793          	addi	a5,sp,80
    80000684:	01b786b3          	add	a3,a5,s11
    80000688:	07800793          	li	a5,120
    8000068c:	001d8713          	addi	a4,s11,1
    80000690:	fef68023          	sb	a5,-32(a3)
    80000694:	efdff06f          	j	80000590 <_ntoa_long+0x3ec>
    80000698:	00013783          	ld	a5,0(sp)
    8000069c:	ffed8d93          	addi	s11,s11,-2
    800006a0:	0207f713          	andi	a4,a5,32
    800006a4:	fc070ee3          	beqz	a4,80000680 <_ntoa_long+0x4dc>
    800006a8:	02000713          	li	a4,32
    800006ac:	d0ed84e3          	beq	s11,a4,800003b4 <_ntoa_long+0x210>
    800006b0:	05010793          	addi	a5,sp,80
    800006b4:	01b786b3          	add	a3,a5,s11
    800006b8:	05800793          	li	a5,88
    800006bc:	001d8713          	addi	a4,s11,1
    800006c0:	fef68023          	sb	a5,-32(a3)
    800006c4:	ecdff06f          	j	80000590 <_ntoa_long+0x3ec>
    800006c8:	00000a13          	li	s4,0
    800006cc:	02000d93          	li	s11,32
    800006d0:	f35ff06f          	j	80000604 <_ntoa_long+0x460>
    800006d4:	01000793          	li	a5,16
    800006d8:	02f40863          	beq	s0,a5,80000708 <_ntoa_long+0x564>
    800006dc:	00200793          	li	a5,2
    800006e0:	c8f410e3          	bne	s0,a5,80000360 <_ntoa_long+0x1bc>
    800006e4:	00000d93          	li	s11,0
    800006e8:	f45ff06f          	j	8000062c <_ntoa_long+0x488>
    800006ec:	00013783          	ld	a5,0(sp)
    800006f0:	0207f713          	andi	a4,a5,32
    800006f4:	fa071ee3          	bnez	a4,800006b0 <_ntoa_long+0x50c>
    800006f8:	07800793          	li	a5,120
    800006fc:	02f10823          	sb	a5,48(sp)
    80000700:	00100713          	li	a4,1
    80000704:	c5dff06f          	j	80000360 <_ntoa_long+0x1bc>
    80000708:	00013783          	ld	a5,0(sp)
    8000070c:	0207f793          	andi	a5,a5,32
    80000710:	fe0784e3          	beqz	a5,800006f8 <_ntoa_long+0x554>
    80000714:	00000d93          	li	s11,0
    80000718:	f99ff06f          	j	800006b0 <_ntoa_long+0x50c>

000000008000071c <_vsnprintf>:
    8000071c:	f6010113          	addi	sp,sp,-160
    80000720:	08813823          	sd	s0,144(sp)
    80000724:	08913423          	sd	s1,136(sp)
    80000728:	09213023          	sd	s2,128(sp)
    8000072c:	07613023          	sd	s6,96(sp)
    80000730:	05a13023          	sd	s10,64(sp)
    80000734:	08113c23          	sd	ra,152(sp)
    80000738:	07313c23          	sd	s3,120(sp)
    8000073c:	07413823          	sd	s4,112(sp)
    80000740:	07513423          	sd	s5,104(sp)
    80000744:	05713c23          	sd	s7,88(sp)
    80000748:	05813823          	sd	s8,80(sp)
    8000074c:	05913423          	sd	s9,72(sp)
    80000750:	03b13c23          	sd	s11,56(sp)
    80000754:	00058493          	mv	s1,a1
    80000758:	00060413          	mv	s0,a2
    8000075c:	00068d13          	mv	s10,a3
    80000760:	00070b13          	mv	s6,a4
    80000764:	00050913          	mv	s2,a0
    80000768:	1a058c63          	beqz	a1,80000920 <_vsnprintf+0x204>
    8000076c:	00010ab7          	lui	s5,0x10
    80000770:	fffa8793          	addi	a5,s5,-1 # ffff <_entry_offset+0xffff>
    80000774:	00000993          	li	s3,0
    80000778:	00001a17          	auipc	s4,0x1
    8000077c:	f70a0a13          	addi	s4,s4,-144 # 800016e8 <_etext+0x104>
    80000780:	00001c97          	auipc	s9,0x1
    80000784:	ff8c8c93          	addi	s9,s9,-8 # 80001778 <_etext+0x194>
    80000788:	00f13823          	sd	a5,16(sp)
    8000078c:	000d4503          	lbu	a0,0(s10)
    80000790:	02050663          	beqz	a0,800007bc <_vsnprintf+0xa0>
    80000794:	02500793          	li	a5,37
    80000798:	001d0d13          	addi	s10,s10,1
    8000079c:	06f50e63          	beq	a0,a5,80000818 <_vsnprintf+0xfc>
    800007a0:	00098613          	mv	a2,s3
    800007a4:	00040693          	mv	a3,s0
    800007a8:	00048593          	mv	a1,s1
    800007ac:	000900e7          	jalr	s2
    800007b0:	000d4503          	lbu	a0,0(s10)
    800007b4:	00198993          	addi	s3,s3,1
    800007b8:	fc051ee3          	bnez	a0,80000794 <_vsnprintf+0x78>
    800007bc:	00098613          	mv	a2,s3
    800007c0:	0089e463          	bltu	s3,s0,800007c8 <_vsnprintf+0xac>
    800007c4:	fff40613          	addi	a2,s0,-1
    800007c8:	00040693          	mv	a3,s0
    800007cc:	00048593          	mv	a1,s1
    800007d0:	00000513          	li	a0,0
    800007d4:	000900e7          	jalr	s2
    800007d8:	09813083          	ld	ra,152(sp)
    800007dc:	09013403          	ld	s0,144(sp)
    800007e0:	0009851b          	sext.w	a0,s3
    800007e4:	08813483          	ld	s1,136(sp)
    800007e8:	08013903          	ld	s2,128(sp)
    800007ec:	07813983          	ld	s3,120(sp)
    800007f0:	07013a03          	ld	s4,112(sp)
    800007f4:	06813a83          	ld	s5,104(sp)
    800007f8:	06013b03          	ld	s6,96(sp)
    800007fc:	05813b83          	ld	s7,88(sp)
    80000800:	05013c03          	ld	s8,80(sp)
    80000804:	04813c83          	ld	s9,72(sp)
    80000808:	04013d03          	ld	s10,64(sp)
    8000080c:	03813d83          	ld	s11,56(sp)
    80000810:	0a010113          	addi	sp,sp,160
    80000814:	00008067          	ret
    80000818:	000d4503          	lbu	a0,0(s10)
    8000081c:	001d0713          	addi	a4,s10,1
    80000820:	01000593          	li	a1,16
    80000824:	fe05079b          	addiw	a5,a0,-32
    80000828:	0ff7f793          	andi	a5,a5,255
    8000082c:	00000693          	li	a3,0
    80000830:	00070613          	mv	a2,a4
    80000834:	02f5ec63          	bltu	a1,a5,8000086c <_vsnprintf+0x150>
    80000838:	00279793          	slli	a5,a5,0x2
    8000083c:	014787b3          	add	a5,a5,s4
    80000840:	0007a783          	lw	a5,0(a5)
    80000844:	014787b3          	add	a5,a5,s4
    80000848:	00078067          	jr	a5
    8000084c:	0016e693          	ori	a3,a3,1
    80000850:	00070d13          	mv	s10,a4
    80000854:	000d4503          	lbu	a0,0(s10)
    80000858:	001d0713          	addi	a4,s10,1
    8000085c:	00070613          	mv	a2,a4
    80000860:	fe05079b          	addiw	a5,a0,-32
    80000864:	0ff7f793          	andi	a5,a5,255
    80000868:	fcf5f8e3          	bleu	a5,a1,80000838 <_vsnprintf+0x11c>
    8000086c:	fd05079b          	addiw	a5,a0,-48
    80000870:	0ff7f793          	andi	a5,a5,255
    80000874:	00900593          	li	a1,9
    80000878:	2ef5fe63          	bleu	a5,a1,80000b74 <_vsnprintf+0x458>
    8000087c:	02a00793          	li	a5,42
    80000880:	00000d93          	li	s11,0
    80000884:	38f50e63          	beq	a0,a5,80000c20 <_vsnprintf+0x504>
    80000888:	02e00793          	li	a5,46
    8000088c:	00000a93          	li	s5,0
    80000890:	32f50863          	beq	a0,a5,80000bc0 <_vsnprintf+0x4a4>
    80000894:	f985079b          	addiw	a5,a0,-104
    80000898:	0ff7f793          	andi	a5,a5,255
    8000089c:	01200713          	li	a4,18
    800008a0:	3af76463          	bltu	a4,a5,80000c48 <_vsnprintf+0x52c>
    800008a4:	00001717          	auipc	a4,0x1
    800008a8:	e8870713          	addi	a4,a4,-376 # 8000172c <_etext+0x148>
    800008ac:	00279793          	slli	a5,a5,0x2
    800008b0:	00e787b3          	add	a5,a5,a4
    800008b4:	0007a783          	lw	a5,0(a5)
    800008b8:	00e787b3          	add	a5,a5,a4
    800008bc:	00078067          	jr	a5
    800008c0:	0046e693          	ori	a3,a3,4
    800008c4:	00070d13          	mv	s10,a4
    800008c8:	f8dff06f          	j	80000854 <_vsnprintf+0x138>
    800008cc:	0026e693          	ori	a3,a3,2
    800008d0:	00070d13          	mv	s10,a4
    800008d4:	f81ff06f          	j	80000854 <_vsnprintf+0x138>
    800008d8:	0106e693          	ori	a3,a3,16
    800008dc:	00070d13          	mv	s10,a4
    800008e0:	f75ff06f          	j	80000854 <_vsnprintf+0x138>
    800008e4:	0086e693          	ori	a3,a3,8
    800008e8:	00070d13          	mv	s10,a4
    800008ec:	f69ff06f          	j	80000854 <_vsnprintf+0x138>
    800008f0:	001d4503          	lbu	a0,1(s10)
    800008f4:	1006e693          	ori	a3,a3,256
    800008f8:	00160d13          	addi	s10,a2,1
    800008fc:	fdb5079b          	addiw	a5,a0,-37
    80000900:	0ff7f793          	andi	a5,a5,255
    80000904:	05300713          	li	a4,83
    80000908:	e8f76ce3          	bltu	a4,a5,800007a0 <_vsnprintf+0x84>
    8000090c:	00279793          	slli	a5,a5,0x2
    80000910:	019787b3          	add	a5,a5,s9
    80000914:	0007a783          	lw	a5,0(a5)
    80000918:	019787b3          	add	a5,a5,s9
    8000091c:	00078067          	jr	a5
    80000920:	00000917          	auipc	s2,0x0
    80000924:	88090913          	addi	s2,s2,-1920 # 800001a0 <_out_null>
    80000928:	e45ff06f          	j	8000076c <_vsnprintf+0x50>
    8000092c:	000b3c03          	ld	s8,0(s6)
    80000930:	008b0793          	addi	a5,s6,8
    80000934:	02f13023          	sd	a5,32(sp)
    80000938:	000c4503          	lbu	a0,0(s8)
    8000093c:	300a8a63          	beqz	s5,80000c50 <_vsnprintf+0x534>
    80000940:	020a9613          	slli	a2,s5,0x20
    80000944:	02065613          	srli	a2,a2,0x20
    80000948:	30050863          	beqz	a0,80000c58 <_vsnprintf+0x53c>
    8000094c:	fff60613          	addi	a2,a2,-1
    80000950:	000c0b93          	mv	s7,s8
    80000954:	0180006f          	j	8000096c <_vsnprintf+0x250>
    80000958:	00100793          	li	a5,1
    8000095c:	41778733          	sub	a4,a5,s7
    80000960:	00ec0733          	add	a4,s8,a4
    80000964:	00c70733          	add	a4,a4,a2
    80000968:	00070863          	beqz	a4,80000978 <_vsnprintf+0x25c>
    8000096c:	001b8b93          	addi	s7,s7,1
    80000970:	000bc703          	lbu	a4,0(s7)
    80000974:	fe0712e3          	bnez	a4,80000958 <_vsnprintf+0x23c>
    80000978:	418b8bbb          	subw	s7,s7,s8
    8000097c:	4006f793          	andi	a5,a3,1024
    80000980:	00078b1b          	sext.w	s6,a5
    80000984:	000b0a63          	beqz	s6,80000998 <_vsnprintf+0x27c>
    80000988:	000a8713          	mv	a4,s5
    8000098c:	015bf463          	bleu	s5,s7,80000994 <_vsnprintf+0x278>
    80000990:	000b8713          	mv	a4,s7
    80000994:	00070b9b          	sext.w	s7,a4
    80000998:	0026f693          	andi	a3,a3,2
    8000099c:	0006879b          	sext.w	a5,a3
    800009a0:	02f13423          	sd	a5,40(sp)
    800009a4:	3c078e63          	beqz	a5,80000d80 <_vsnprintf+0x664>
    800009a8:	02051263          	bnez	a0,800009cc <_vsnprintf+0x2b0>
    800009ac:	3640006f          	j	80000d10 <_vsnprintf+0x5f4>
    800009b0:	00040693          	mv	a3,s0
    800009b4:	00048593          	mv	a1,s1
    800009b8:	001c0c13          	addi	s8,s8,1
    800009bc:	000900e7          	jalr	s2
    800009c0:	000c4503          	lbu	a0,0(s8)
    800009c4:	00198993          	addi	s3,s3,1
    800009c8:	32050c63          	beqz	a0,80000d00 <_vsnprintf+0x5e4>
    800009cc:	00098613          	mv	a2,s3
    800009d0:	fe0b00e3          	beqz	s6,800009b0 <_vsnprintf+0x294>
    800009d4:	fffa871b          	addiw	a4,s5,-1
    800009d8:	320a8463          	beqz	s5,80000d00 <_vsnprintf+0x5e4>
    800009dc:	00070a93          	mv	s5,a4
    800009e0:	fd1ff06f          	j	800009b0 <_vsnprintf+0x294>
    800009e4:	000b3703          	ld	a4,0(s6)
    800009e8:	0216e693          	ori	a3,a3,33
    800009ec:	01000793          	li	a5,16
    800009f0:	00d13423          	sd	a3,8(sp)
    800009f4:	00f13023          	sd	a5,0(sp)
    800009f8:	00098613          	mv	a2,s3
    800009fc:	000a8893          	mv	a7,s5
    80000a00:	01000813          	li	a6,16
    80000a04:	00000793          	li	a5,0
    80000a08:	00040693          	mv	a3,s0
    80000a0c:	00048593          	mv	a1,s1
    80000a10:	00090513          	mv	a0,s2
    80000a14:	f90ff0ef          	jal	ra,800001a4 <_ntoa_long>
    80000a18:	008b0b13          	addi	s6,s6,8
    80000a1c:	00050993          	mv	s3,a0
    80000a20:	d6dff06f          	j	8000078c <_vsnprintf+0x70>
    80000a24:	00198b93          	addi	s7,s3,1
    80000a28:	0026f693          	andi	a3,a3,2
    80000a2c:	008b0c13          	addi	s8,s6,8
    80000a30:	000b8a93          	mv	s5,s7
    80000a34:	3c068c63          	beqz	a3,80000e0c <_vsnprintf+0x6f0>
    80000a38:	000b4503          	lbu	a0,0(s6)
    80000a3c:	00040693          	mv	a3,s0
    80000a40:	00098613          	mv	a2,s3
    80000a44:	00048593          	mv	a1,s1
    80000a48:	000900e7          	jalr	s2
    80000a4c:	00100793          	li	a5,1
    80000a50:	2bb7f263          	bleu	s11,a5,80000cf4 <_vsnprintf+0x5d8>
    80000a54:	ffed879b          	addiw	a5,s11,-2
    80000a58:	02079b13          	slli	s6,a5,0x20
    80000a5c:	020b5b13          	srli	s6,s6,0x20
    80000a60:	00298993          	addi	s3,s3,2
    80000a64:	01698db3          	add	s11,s3,s6
    80000a68:	001a8793          	addi	a5,s5,1
    80000a6c:	000a8613          	mv	a2,s5
    80000a70:	00040693          	mv	a3,s0
    80000a74:	00078a93          	mv	s5,a5
    80000a78:	00048593          	mv	a1,s1
    80000a7c:	02000513          	li	a0,32
    80000a80:	000900e7          	jalr	s2
    80000a84:	ff5d92e3          	bne	s11,s5,80000a68 <_vsnprintf+0x34c>
    80000a88:	013b09b3          	add	s3,s6,s3
    80000a8c:	000c0b13          	mv	s6,s8
    80000a90:	cfdff06f          	j	8000078c <_vsnprintf+0x70>
    80000a94:	07800793          	li	a5,120
    80000a98:	34f50e63          	beq	a0,a5,80000df4 <_vsnprintf+0x6d8>
    80000a9c:	05800793          	li	a5,88
    80000aa0:	1cf50063          	beq	a0,a5,80000c60 <_vsnprintf+0x544>
    80000aa4:	06f00793          	li	a5,111
    80000aa8:	3cf50e63          	beq	a0,a5,80000e84 <_vsnprintf+0x768>
    80000aac:	06200793          	li	a5,98
    80000ab0:	40f50463          	beq	a0,a5,80000eb8 <_vsnprintf+0x79c>
    80000ab4:	06900713          	li	a4,105
    80000ab8:	00068793          	mv	a5,a3
    80000abc:	fef6f613          	andi	a2,a3,-17
    80000ac0:	48e51463          	bne	a0,a4,80000f48 <_vsnprintf+0x82c>
    80000ac4:	4006f693          	andi	a3,a3,1024
    80000ac8:	3a069a63          	bnez	a3,80000e7c <_vsnprintf+0x760>
    80000acc:	2007f793          	andi	a5,a5,512
    80000ad0:	0007879b          	sext.w	a5,a5
    80000ad4:	00a00713          	li	a4,10
    80000ad8:	ca079ae3          	bnez	a5,8000078c <_vsnprintf+0x70>
    80000adc:	02071813          	slli	a6,a4,0x20
    80000ae0:	10067793          	andi	a5,a2,256
    80000ae4:	02085813          	srli	a6,a6,0x20
    80000ae8:	008b0b93          	addi	s7,s6,8
    80000aec:	00060713          	mv	a4,a2
    80000af0:	3e079263          	bnez	a5,80000ed4 <_vsnprintf+0x7b8>
    80000af4:	04067693          	andi	a3,a2,64
    80000af8:	000b2783          	lw	a5,0(s6)
    80000afc:	3c068263          	beqz	a3,80000ec0 <_vsnprintf+0x7a4>
    80000b00:	0ff7f793          	andi	a5,a5,255
    80000b04:	41f7d69b          	sraiw	a3,a5,0x1f
    80000b08:	00d7c733          	xor	a4,a5,a3
    80000b0c:	00c13423          	sd	a2,8(sp)
    80000b10:	01b13023          	sd	s11,0(sp)
    80000b14:	000a8893          	mv	a7,s5
    80000b18:	03f7d793          	srli	a5,a5,0x3f
    80000b1c:	40d7073b          	subw	a4,a4,a3
    80000b20:	1b40006f          	j	80000cd4 <_vsnprintf+0x5b8>
    80000b24:	00098613          	mv	a2,s3
    80000b28:	00040693          	mv	a3,s0
    80000b2c:	00048593          	mv	a1,s1
    80000b30:	02500513          	li	a0,37
    80000b34:	00198993          	addi	s3,s3,1
    80000b38:	000900e7          	jalr	s2
    80000b3c:	c51ff06f          	j	8000078c <_vsnprintf+0x70>
    80000b40:	001d4503          	lbu	a0,1(s10)
    80000b44:	06c00793          	li	a5,108
    80000b48:	daf516e3          	bne	a0,a5,800008f4 <_vsnprintf+0x1d8>
    80000b4c:	002d4503          	lbu	a0,2(s10)
    80000b50:	3006e693          	ori	a3,a3,768
    80000b54:	003d0d13          	addi	s10,s10,3
    80000b58:	da5ff06f          	j	800008fc <_vsnprintf+0x1e0>
    80000b5c:	001d4503          	lbu	a0,1(s10)
    80000b60:	06800793          	li	a5,104
    80000b64:	28f50063          	beq	a0,a5,80000de4 <_vsnprintf+0x6c8>
    80000b68:	0806e693          	ori	a3,a3,128
    80000b6c:	00160d13          	addi	s10,a2,1
    80000b70:	d8dff06f          	j	800008fc <_vsnprintf+0x1e0>
    80000b74:	00000d93          	li	s11,0
    80000b78:	00900613          	li	a2,9
    80000b7c:	00c0006f          	j	80000b88 <_vsnprintf+0x46c>
    80000b80:	00070d13          	mv	s10,a4
    80000b84:	00170713          	addi	a4,a4,1
    80000b88:	002d979b          	slliw	a5,s11,0x2
    80000b8c:	01b787bb          	addw	a5,a5,s11
    80000b90:	0017979b          	slliw	a5,a5,0x1
    80000b94:	00a787bb          	addw	a5,a5,a0
    80000b98:	00074503          	lbu	a0,0(a4)
    80000b9c:	fd078d9b          	addiw	s11,a5,-48
    80000ba0:	fd05079b          	addiw	a5,a0,-48
    80000ba4:	0ff7f793          	andi	a5,a5,255
    80000ba8:	fcf67ce3          	bleu	a5,a2,80000b80 <_vsnprintf+0x464>
    80000bac:	02e00793          	li	a5,46
    80000bb0:	002d0613          	addi	a2,s10,2
    80000bb4:	00000a93          	li	s5,0
    80000bb8:	00070d13          	mv	s10,a4
    80000bbc:	ccf51ce3          	bne	a0,a5,80000894 <_vsnprintf+0x178>
    80000bc0:	001d4503          	lbu	a0,1(s10)
    80000bc4:	00900713          	li	a4,9
    80000bc8:	4006e693          	ori	a3,a3,1024
    80000bcc:	fd05079b          	addiw	a5,a0,-48
    80000bd0:	0ff7f793          	andi	a5,a5,255
    80000bd4:	00f77e63          	bleu	a5,a4,80000bf0 <_vsnprintf+0x4d4>
    80000bd8:	02a00793          	li	a5,42
    80000bdc:	18f50063          	beq	a0,a5,80000d5c <_vsnprintf+0x640>
    80000be0:	00060d13          	mv	s10,a2
    80000be4:	00160613          	addi	a2,a2,1
    80000be8:	cadff06f          	j	80000894 <_vsnprintf+0x178>
    80000bec:	000d0613          	mv	a2,s10
    80000bf0:	002a979b          	slliw	a5,s5,0x2
    80000bf4:	015788bb          	addw	a7,a5,s5
    80000bf8:	0018989b          	slliw	a7,a7,0x1
    80000bfc:	00a888bb          	addw	a7,a7,a0
    80000c00:	00164503          	lbu	a0,1(a2)
    80000c04:	00160d13          	addi	s10,a2,1
    80000c08:	fd088a9b          	addiw	s5,a7,-48
    80000c0c:	fd05079b          	addiw	a5,a0,-48
    80000c10:	0ff7f793          	andi	a5,a5,255
    80000c14:	fcf77ce3          	bleu	a5,a4,80000bec <_vsnprintf+0x4d0>
    80000c18:	00260613          	addi	a2,a2,2
    80000c1c:	c79ff06f          	j	80000894 <_vsnprintf+0x178>
    80000c20:	000b2783          	lw	a5,0(s6)
    80000c24:	008b0b13          	addi	s6,s6,8
    80000c28:	00078d9b          	sext.w	s11,a5
    80000c2c:	0007d663          	bgez	a5,80000c38 <_vsnprintf+0x51c>
    80000c30:	40f00dbb          	negw	s11,a5
    80000c34:	0026e693          	ori	a3,a3,2
    80000c38:	002d0613          	addi	a2,s10,2
    80000c3c:	001d4503          	lbu	a0,1(s10)
    80000c40:	00070d13          	mv	s10,a4
    80000c44:	c45ff06f          	j	80000888 <_vsnprintf+0x16c>
    80000c48:	00060d13          	mv	s10,a2
    80000c4c:	cb1ff06f          	j	800008fc <_vsnprintf+0x1e0>
    80000c50:	ffe00613          	li	a2,-2
    80000c54:	ce051ee3          	bnez	a0,80000950 <_vsnprintf+0x234>
    80000c58:	00000b93          	li	s7,0
    80000c5c:	d21ff06f          	j	8000097c <_vsnprintf+0x260>
    80000c60:	fd36f613          	andi	a2,a3,-45
    80000c64:	4006f793          	andi	a5,a3,1024
    80000c68:	02066613          	ori	a2,a2,32
    80000c6c:	20078063          	beqz	a5,80000e6c <_vsnprintf+0x750>
    80000c70:	01000713          	li	a4,16
    80000c74:	ffe67613          	andi	a2,a2,-2
    80000c78:	0006061b          	sext.w	a2,a2
    80000c7c:	20067793          	andi	a5,a2,512
    80000c80:	06900693          	li	a3,105
    80000c84:	0007879b          	sext.w	a5,a5
    80000c88:	e4d508e3          	beq	a0,a3,80000ad8 <_vsnprintf+0x3bc>
    80000c8c:	06400693          	li	a3,100
    80000c90:	e4d504e3          	beq	a0,a3,80000ad8 <_vsnprintf+0x3bc>
    80000c94:	ae079ce3          	bnez	a5,8000078c <_vsnprintf+0x70>
    80000c98:	02071813          	slli	a6,a4,0x20
    80000c9c:	10067793          	andi	a5,a2,256
    80000ca0:	02085813          	srli	a6,a6,0x20
    80000ca4:	008b0b93          	addi	s7,s6,8
    80000ca8:	00060693          	mv	a3,a2
    80000cac:	26079263          	bnez	a5,80000f10 <_vsnprintf+0x7f4>
    80000cb0:	04067793          	andi	a5,a2,64
    80000cb4:	24078263          	beqz	a5,80000ef8 <_vsnprintf+0x7dc>
    80000cb8:	000b4703          	lbu	a4,0(s6)
    80000cbc:	02071713          	slli	a4,a4,0x20
    80000cc0:	00c13423          	sd	a2,8(sp)
    80000cc4:	01b13023          	sd	s11,0(sp)
    80000cc8:	000a8893          	mv	a7,s5
    80000ccc:	00000793          	li	a5,0
    80000cd0:	02075713          	srli	a4,a4,0x20
    80000cd4:	00098613          	mv	a2,s3
    80000cd8:	00040693          	mv	a3,s0
    80000cdc:	00048593          	mv	a1,s1
    80000ce0:	00090513          	mv	a0,s2
    80000ce4:	cc0ff0ef          	jal	ra,800001a4 <_ntoa_long>
    80000ce8:	00050993          	mv	s3,a0
    80000cec:	000b8b13          	mv	s6,s7
    80000cf0:	a9dff06f          	j	8000078c <_vsnprintf+0x70>
    80000cf4:	000b8993          	mv	s3,s7
    80000cf8:	000c0b13          	mv	s6,s8
    80000cfc:	a91ff06f          	j	8000078c <_vsnprintf+0x70>
    80000d00:	02813783          	ld	a5,40(sp)
    80000d04:	00079663          	bnez	a5,80000d10 <_vsnprintf+0x5f4>
    80000d08:	02013b03          	ld	s6,32(sp)
    80000d0c:	a81ff06f          	j	8000078c <_vsnprintf+0x70>
    80000d10:	ffbbfce3          	bleu	s11,s7,80000d08 <_vsnprintf+0x5ec>
    80000d14:	fffd879b          	addiw	a5,s11,-1
    80000d18:	417787bb          	subw	a5,a5,s7
    80000d1c:	02079793          	slli	a5,a5,0x20
    80000d20:	0207d793          	srli	a5,a5,0x20
    80000d24:	00198b93          	addi	s7,s3,1
    80000d28:	01778ab3          	add	s5,a5,s7
    80000d2c:	00098613          	mv	a2,s3
    80000d30:	0080006f          	j	80000d38 <_vsnprintf+0x61c>
    80000d34:	001b8b93          	addi	s7,s7,1
    80000d38:	00040693          	mv	a3,s0
    80000d3c:	00048593          	mv	a1,s1
    80000d40:	02000513          	li	a0,32
    80000d44:	000900e7          	jalr	s2
    80000d48:	000b8993          	mv	s3,s7
    80000d4c:	000b8613          	mv	a2,s7
    80000d50:	ff7a92e3          	bne	s5,s7,80000d34 <_vsnprintf+0x618>
    80000d54:	02013b03          	ld	s6,32(sp)
    80000d58:	a35ff06f          	j	8000078c <_vsnprintf+0x70>
    80000d5c:	000b2883          	lw	a7,0(s6)
    80000d60:	002d4503          	lbu	a0,2(s10)
    80000d64:	003d0613          	addi	a2,s10,3
    80000d68:	fff8c793          	not	a5,a7
    80000d6c:	43f7d793          	srai	a5,a5,0x3f
    80000d70:	00f8fab3          	and	s5,a7,a5
    80000d74:	008b0b13          	addi	s6,s6,8
    80000d78:	002d0d13          	addi	s10,s10,2
    80000d7c:	b19ff06f          	j	80000894 <_vsnprintf+0x178>
    80000d80:	001b871b          	addiw	a4,s7,1
    80000d84:	1bbbf863          	bleu	s11,s7,80000f34 <_vsnprintf+0x818>
    80000d88:	fffd871b          	addiw	a4,s11,-1
    80000d8c:	41770bbb          	subw	s7,a4,s7
    80000d90:	020b9793          	slli	a5,s7,0x20
    80000d94:	0207d793          	srli	a5,a5,0x20
    80000d98:	00198b93          	addi	s7,s3,1
    80000d9c:	017787b3          	add	a5,a5,s7
    80000da0:	00f13c23          	sd	a5,24(sp)
    80000da4:	00098613          	mv	a2,s3
    80000da8:	0080006f          	j	80000db0 <_vsnprintf+0x694>
    80000dac:	001b8b93          	addi	s7,s7,1
    80000db0:	00040693          	mv	a3,s0
    80000db4:	00048593          	mv	a1,s1
    80000db8:	02000513          	li	a0,32
    80000dbc:	000900e7          	jalr	s2
    80000dc0:	01813783          	ld	a5,24(sp)
    80000dc4:	000b8993          	mv	s3,s7
    80000dc8:	000b8613          	mv	a2,s7
    80000dcc:	fefb90e3          	bne	s7,a5,80000dac <_vsnprintf+0x690>
    80000dd0:	000c4503          	lbu	a0,0(s8)
    80000dd4:	001d8b9b          	addiw	s7,s11,1
    80000dd8:	be051ae3          	bnez	a0,800009cc <_vsnprintf+0x2b0>
    80000ddc:	02013b03          	ld	s6,32(sp)
    80000de0:	9adff06f          	j	8000078c <_vsnprintf+0x70>
    80000de4:	002d4503          	lbu	a0,2(s10)
    80000de8:	0c06e693          	ori	a3,a3,192
    80000dec:	003d0d13          	addi	s10,s10,3
    80000df0:	b0dff06f          	j	800008fc <_vsnprintf+0x1e0>
    80000df4:	4006f593          	andi	a1,a3,1024
    80000df8:	0005859b          	sext.w	a1,a1
    80000dfc:	01000713          	li	a4,16
    80000e00:	ff36f613          	andi	a2,a3,-13
    80000e04:	e6058ce3          	beqz	a1,80000c7c <_vsnprintf+0x560>
    80000e08:	e6dff06f          	j	80000c74 <_vsnprintf+0x558>
    80000e0c:	00100793          	li	a5,1
    80000e10:	11b7fc63          	bleu	s11,a5,80000f28 <_vsnprintf+0x80c>
    80000e14:	ffed879b          	addiw	a5,s11,-2
    80000e18:	02079793          	slli	a5,a5,0x20
    80000e1c:	0207d793          	srli	a5,a5,0x20
    80000e20:	01778ab3          	add	s5,a5,s7
    80000e24:	00c0006f          	j	80000e30 <_vsnprintf+0x714>
    80000e28:	000b8993          	mv	s3,s7
    80000e2c:	001b8b93          	addi	s7,s7,1
    80000e30:	00040693          	mv	a3,s0
    80000e34:	00098613          	mv	a2,s3
    80000e38:	00048593          	mv	a1,s1
    80000e3c:	02000513          	li	a0,32
    80000e40:	000b8d93          	mv	s11,s7
    80000e44:	000900e7          	jalr	s2
    80000e48:	ff7a90e3          	bne	s5,s7,80000e28 <_vsnprintf+0x70c>
    80000e4c:	00298993          	addi	s3,s3,2
    80000e50:	000b4503          	lbu	a0,0(s6)
    80000e54:	00040693          	mv	a3,s0
    80000e58:	000d8613          	mv	a2,s11
    80000e5c:	00048593          	mv	a1,s1
    80000e60:	000900e7          	jalr	s2
    80000e64:	000c0b13          	mv	s6,s8
    80000e68:	925ff06f          	j	8000078c <_vsnprintf+0x70>
    80000e6c:	2006f793          	andi	a5,a3,512
    80000e70:	0007879b          	sext.w	a5,a5
    80000e74:	01000713          	li	a4,16
    80000e78:	e1dff06f          	j	80000c94 <_vsnprintf+0x578>
    80000e7c:	00a00713          	li	a4,10
    80000e80:	df5ff06f          	j	80000c74 <_vsnprintf+0x558>
    80000e84:	00800713          	li	a4,8
    80000e88:	4006f593          	andi	a1,a3,1024
    80000e8c:	06400613          	li	a2,100
    80000e90:	00068793          	mv	a5,a3
    80000e94:	0005859b          	sext.w	a1,a1
    80000e98:	f6c514e3          	bne	a0,a2,80000e00 <_vsnprintf+0x6e4>
    80000e9c:	00059a63          	bnez	a1,80000eb0 <_vsnprintf+0x794>
    80000ea0:	2007f793          	andi	a5,a5,512
    80000ea4:	0007879b          	sext.w	a5,a5
    80000ea8:	00068613          	mv	a2,a3
    80000eac:	c2dff06f          	j	80000ad8 <_vsnprintf+0x3bc>
    80000eb0:	00068613          	mv	a2,a3
    80000eb4:	dc1ff06f          	j	80000c74 <_vsnprintf+0x558>
    80000eb8:	00200713          	li	a4,2
    80000ebc:	fcdff06f          	j	80000e88 <_vsnprintf+0x76c>
    80000ec0:	08077713          	andi	a4,a4,128
    80000ec4:	c40700e3          	beqz	a4,80000b04 <_vsnprintf+0x3e8>
    80000ec8:	0107979b          	slliw	a5,a5,0x10
    80000ecc:	4107d79b          	sraiw	a5,a5,0x10
    80000ed0:	c35ff06f          	j	80000b04 <_vsnprintf+0x3e8>
    80000ed4:	000b3783          	ld	a5,0(s6)
    80000ed8:	000a8893          	mv	a7,s5
    80000edc:	00c13423          	sd	a2,8(sp)
    80000ee0:	43f7d713          	srai	a4,a5,0x3f
    80000ee4:	00f746b3          	xor	a3,a4,a5
    80000ee8:	01b13023          	sd	s11,0(sp)
    80000eec:	03f7d793          	srli	a5,a5,0x3f
    80000ef0:	40e68733          	sub	a4,a3,a4
    80000ef4:	de1ff06f          	j	80000cd4 <_vsnprintf+0x5b8>
    80000ef8:	0806f693          	andi	a3,a3,128
    80000efc:	04068263          	beqz	a3,80000f40 <_vsnprintf+0x824>
    80000f00:	000b2783          	lw	a5,0(s6)
    80000f04:	01013703          	ld	a4,16(sp)
    80000f08:	00f77733          	and	a4,a4,a5
    80000f0c:	db1ff06f          	j	80000cbc <_vsnprintf+0x5a0>
    80000f10:	000b3703          	ld	a4,0(s6)
    80000f14:	000a8893          	mv	a7,s5
    80000f18:	00c13423          	sd	a2,8(sp)
    80000f1c:	01b13023          	sd	s11,0(sp)
    80000f20:	00000793          	li	a5,0
    80000f24:	db1ff06f          	j	80000cd4 <_vsnprintf+0x5b8>
    80000f28:	00098d93          	mv	s11,s3
    80000f2c:	000b8993          	mv	s3,s7
    80000f30:	f21ff06f          	j	80000e50 <_vsnprintf+0x734>
    80000f34:	00070b93          	mv	s7,a4
    80000f38:	a8051ae3          	bnez	a0,800009cc <_vsnprintf+0x2b0>
    80000f3c:	ea1ff06f          	j	80000ddc <_vsnprintf+0x6c0>
    80000f40:	000b2703          	lw	a4,0(s6)
    80000f44:	d79ff06f          	j	80000cbc <_vsnprintf+0x5a0>
    80000f48:	00060693          	mv	a3,a2
    80000f4c:	00a00713          	li	a4,10
    80000f50:	f39ff06f          	j	80000e88 <_vsnprintf+0x76c>

0000000080000f54 <sprintf_>:
    80000f54:	fb010113          	addi	sp,sp,-80
    80000f58:	02010313          	addi	t1,sp,32
    80000f5c:	02c13023          	sd	a2,32(sp)
    80000f60:	02d13423          	sd	a3,40(sp)
    80000f64:	02e13823          	sd	a4,48(sp)
    80000f68:	00058693          	mv	a3,a1
    80000f6c:	00030713          	mv	a4,t1
    80000f70:	00050593          	mv	a1,a0
    80000f74:	fff00613          	li	a2,-1
    80000f78:	fffff517          	auipc	a0,0xfffff
    80000f7c:	21850513          	addi	a0,a0,536 # 80000190 <_out_buffer>
    80000f80:	00113c23          	sd	ra,24(sp)
    80000f84:	02f13c23          	sd	a5,56(sp)
    80000f88:	05013023          	sd	a6,64(sp)
    80000f8c:	05113423          	sd	a7,72(sp)
    80000f90:	00613423          	sd	t1,8(sp)
    80000f94:	f88ff0ef          	jal	ra,8000071c <_vsnprintf>
    80000f98:	01813083          	ld	ra,24(sp)
    80000f9c:	05010113          	addi	sp,sp,80
    80000fa0:	00008067          	ret

0000000080000fa4 <__udivmoddi4>:
    80000fa4:	fb010113          	addi	sp,sp,-80
    80000fa8:	02913c23          	sd	s1,56(sp)
    80000fac:	03313423          	sd	s3,40(sp)
    80000fb0:	03413023          	sd	s4,32(sp)
    80000fb4:	01513c23          	sd	s5,24(sp)
    80000fb8:	04113423          	sd	ra,72(sp)
    80000fbc:	04813023          	sd	s0,64(sp)
    80000fc0:	03213823          	sd	s2,48(sp)
    80000fc4:	42055a93          	srai	s5,a0,0x20
    80000fc8:	00050493          	mv	s1,a0
    80000fcc:	00060993          	mv	s3,a2
    80000fd0:	4205da13          	srai	s4,a1,0x20
    80000fd4:	060a9c63          	bnez	s5,8000104c <__udivmoddi4+0xa8>
    80000fd8:	120a1a63          	bnez	s4,8000110c <__udivmoddi4+0x168>
    80000fdc:	0005859b          	sext.w	a1,a1
    80000fe0:	0005049b          	sext.w	s1,a0
    80000fe4:	02049493          	slli	s1,s1,0x20
    80000fe8:	02059413          	slli	s0,a1,0x20
    80000fec:	0204d493          	srli	s1,s1,0x20
    80000ff0:	02045413          	srli	s0,s0,0x20
    80000ff4:	00060e63          	beqz	a2,80001010 <__udivmoddi4+0x6c>
    80000ff8:	00040593          	mv	a1,s0
    80000ffc:	00048513          	mv	a0,s1
    80001000:	3fc000ef          	jal	ra,800013fc <__umoddi3>
    80001004:	02051513          	slli	a0,a0,0x20
    80001008:	02055513          	srli	a0,a0,0x20
    8000100c:	00a9b023          	sd	a0,0(s3)
    80001010:	00040593          	mv	a1,s0
    80001014:	00048513          	mv	a0,s1
    80001018:	3dc000ef          	jal	ra,800013f4 <__udivdi3>
    8000101c:	02051413          	slli	s0,a0,0x20
    80001020:	02045413          	srli	s0,s0,0x20
    80001024:	00040513          	mv	a0,s0
    80001028:	04813083          	ld	ra,72(sp)
    8000102c:	04013403          	ld	s0,64(sp)
    80001030:	03813483          	ld	s1,56(sp)
    80001034:	03013903          	ld	s2,48(sp)
    80001038:	02813983          	ld	s3,40(sp)
    8000103c:	02013a03          	ld	s4,32(sp)
    80001040:	01813a83          	ld	s5,24(sp)
    80001044:	05010113          	addi	sp,sp,80
    80001048:	00008067          	ret
    8000104c:	0005851b          	sext.w	a0,a1
    80001050:	04051863          	bnez	a0,800010a0 <__udivmoddi4+0xfc>
    80001054:	0c0a0863          	beqz	s4,80001124 <__udivmoddi4+0x180>
    80001058:	0004841b          	sext.w	s0,s1
    8000105c:	22041063          	bnez	s0,8000127c <__udivmoddi4+0x2d8>
    80001060:	020a9a93          	slli	s5,s5,0x20
    80001064:	020a1a13          	slli	s4,s4,0x20
    80001068:	020ada93          	srli	s5,s5,0x20
    8000106c:	020a5a13          	srli	s4,s4,0x20
    80001070:	00060c63          	beqz	a2,80001088 <__udivmoddi4+0xe4>
    80001074:	000a0593          	mv	a1,s4
    80001078:	000a8513          	mv	a0,s5
    8000107c:	380000ef          	jal	ra,800013fc <__umoddi3>
    80001080:	02051513          	slli	a0,a0,0x20
    80001084:	00a9b023          	sd	a0,0(s3)
    80001088:	000a0593          	mv	a1,s4
    8000108c:	000a8513          	mv	a0,s5
    80001090:	364000ef          	jal	ra,800013f4 <__udivdi3>
    80001094:	02051413          	slli	s0,a0,0x20
    80001098:	02045413          	srli	s0,s0,0x20
    8000109c:	f89ff06f          	j	80001024 <__udivmoddi4+0x80>
    800010a0:	080a1463          	bnez	s4,80001128 <__udivmoddi4+0x184>
    800010a4:	fff5071b          	addiw	a4,a0,-1
    800010a8:	00e577b3          	and	a5,a0,a4
    800010ac:	0007879b          	sext.w	a5,a5
    800010b0:	20079a63          	bnez	a5,800012c4 <__udivmoddi4+0x320>
    800010b4:	00060a63          	beqz	a2,800010c8 <__udivmoddi4+0x124>
    800010b8:	00e4f733          	and	a4,s1,a4
    800010bc:	02071713          	slli	a4,a4,0x20
    800010c0:	02075713          	srli	a4,a4,0x20
    800010c4:	00e63023          	sd	a4,0(a2)
    800010c8:	00100793          	li	a5,1
    800010cc:	00048413          	mv	s0,s1
    800010d0:	f4f50ae3          	beq	a0,a5,80001024 <__udivmoddi4+0x80>
    800010d4:	02051513          	slli	a0,a0,0x20
    800010d8:	02055513          	srli	a0,a0,0x20
    800010dc:	470000ef          	jal	ra,8000154c <__ctzdi2>
    800010e0:	02000793          	li	a5,32
    800010e4:	40a787bb          	subw	a5,a5,a0
    800010e8:	00a4d43b          	srlw	s0,s1,a0
    800010ec:	00fa97bb          	sllw	a5,s5,a5
    800010f0:	0087e433          	or	s0,a5,s0
    800010f4:	00aad53b          	srlw	a0,s5,a0
    800010f8:	02041413          	slli	s0,s0,0x20
    800010fc:	02045413          	srli	s0,s0,0x20
    80001100:	02051513          	slli	a0,a0,0x20
    80001104:	00856433          	or	s0,a0,s0
    80001108:	f1dff06f          	j	80001024 <__udivmoddi4+0x80>
    8000110c:	00000413          	li	s0,0
    80001110:	f0060ae3          	beqz	a2,80001024 <__udivmoddi4+0x80>
    80001114:	02051793          	slli	a5,a0,0x20
    80001118:	0207d793          	srli	a5,a5,0x20
    8000111c:	00f63023          	sd	a5,0(a2)
    80001120:	f05ff06f          	j	80001024 <__udivmoddi4+0x80>
    80001124:	00100073          	ebreak
    80001128:	020a1513          	slli	a0,s4,0x20
    8000112c:	02055513          	srli	a0,a0,0x20
    80001130:	00b13423          	sd	a1,8(sp)
    80001134:	464000ef          	jal	ra,80001598 <__clzdi2>
    80001138:	fe05041b          	addiw	s0,a0,-32
    8000113c:	020a9513          	slli	a0,s5,0x20
    80001140:	02055513          	srli	a0,a0,0x20
    80001144:	454000ef          	jal	ra,80001598 <__clzdi2>
    80001148:	fe05071b          	addiw	a4,a0,-32
    8000114c:	40e406bb          	subw	a3,s0,a4
    80001150:	01f00793          	li	a5,31
    80001154:	10d7ec63          	bltu	a5,a3,8000126c <__udivmoddi4+0x2c8>
    80001158:	0016861b          	addiw	a2,a3,1
    8000115c:	02000693          	li	a3,32
    80001160:	00000413          	li	s0,0
    80001164:	0004879b          	sext.w	a5,s1
    80001168:	00813583          	ld	a1,8(sp)
    8000116c:	22d60663          	beq	a2,a3,80001398 <__udivmoddi4+0x3f4>
    80001170:	02000693          	li	a3,32
    80001174:	40c686bb          	subw	a3,a3,a2
    80001178:	00d7953b          	sllw	a0,a5,a3
    8000117c:	02041413          	slli	s0,s0,0x20
    80001180:	00da96bb          	sllw	a3,s5,a3
    80001184:	00c7d7bb          	srlw	a5,a5,a2
    80001188:	00f6e4b3          	or	s1,a3,a5
    8000118c:	02051813          	slli	a6,a0,0x20
    80001190:	02045413          	srli	s0,s0,0x20
    80001194:	00cad73b          	srlw	a4,s5,a2
    80001198:	0005079b          	sext.w	a5,a0
    8000119c:	01046433          	or	s0,s0,a6
    800011a0:	00048a9b          	sext.w	s5,s1
    800011a4:	00000a13          	li	s4,0
    800011a8:	fff00893          	li	a7,-1
    800011ac:	0208d313          	srli	t1,a7,0x20
    800011b0:	00000813          	li	a6,0
    800011b4:	02089893          	slli	a7,a7,0x20
    800011b8:	0140006f          	j	800011cc <__udivmoddi4+0x228>
    800011bc:	42095713          	srai	a4,s2,0x20
    800011c0:	00090a9b          	sext.w	s5,s2
    800011c4:	0007879b          	sext.w	a5,a5
    800011c8:	000a0a1b          	sext.w	s4,s4
    800011cc:	01fad69b          	srliw	a3,s5,0x1f
    800011d0:	0017171b          	slliw	a4,a4,0x1
    800011d4:	00d76733          	or	a4,a4,a3
    800011d8:	02071713          	slli	a4,a4,0x20
    800011dc:	01f7d69b          	srliw	a3,a5,0x1f
    800011e0:	001a951b          	slliw	a0,s5,0x1
    800011e4:	00697933          	and	s2,s2,t1
    800011e8:	00e96933          	or	s2,s2,a4
    800011ec:	00d56733          	or	a4,a0,a3
    800011f0:	02071713          	slli	a4,a4,0x20
    800011f4:	02075713          	srli	a4,a4,0x20
    800011f8:	01197933          	and	s2,s2,a7
    800011fc:	00e96933          	or	s2,s2,a4
    80001200:	fff94713          	not	a4,s2
    80001204:	00b70733          	add	a4,a4,a1
    80001208:	01fa5e1b          	srliw	t3,s4,0x1f
    8000120c:	001a151b          	slliw	a0,s4,0x1
    80001210:	0017979b          	slliw	a5,a5,0x1
    80001214:	43f75693          	srai	a3,a4,0x3f
    80001218:	00a86533          	or	a0,a6,a0
    8000121c:	01c7e7b3          	or	a5,a5,t3
    80001220:	00b6f6b3          	and	a3,a3,a1
    80001224:	fff6061b          	addiw	a2,a2,-1
    80001228:	0007879b          	sext.w	a5,a5
    8000122c:	00050a1b          	sext.w	s4,a0
    80001230:	03f75813          	srli	a6,a4,0x3f
    80001234:	40d90933          	sub	s2,s2,a3
    80001238:	f80612e3          	bnez	a2,800011bc <__udivmoddi4+0x218>
    8000123c:	02079713          	slli	a4,a5,0x20
    80001240:	00647433          	and	s0,s0,t1
    80001244:	00e46433          	or	s0,s0,a4
    80001248:	020a1793          	slli	a5,s4,0x20
    8000124c:	0207d793          	srli	a5,a5,0x20
    80001250:	01147433          	and	s0,s0,a7
    80001254:	00f46433          	or	s0,s0,a5
    80001258:	00141413          	slli	s0,s0,0x1
    8000125c:	01046433          	or	s0,s0,a6
    80001260:	dc0982e3          	beqz	s3,80001024 <__udivmoddi4+0x80>
    80001264:	0129b023          	sd	s2,0(s3)
    80001268:	dbdff06f          	j	80001024 <__udivmoddi4+0x80>
    8000126c:	00000413          	li	s0,0
    80001270:	da098ae3          	beqz	s3,80001024 <__udivmoddi4+0x80>
    80001274:	0099b023          	sd	s1,0(s3)
    80001278:	dadff06f          	j	80001024 <__udivmoddi4+0x80>
    8000127c:	fffa071b          	addiw	a4,s4,-1
    80001280:	00ea77b3          	and	a5,s4,a4
    80001284:	0007879b          	sext.w	a5,a5
    80001288:	0a079463          	bnez	a5,80001330 <__udivmoddi4+0x38c>
    8000128c:	00060e63          	beqz	a2,800012a8 <__udivmoddi4+0x304>
    80001290:	00eaf733          	and	a4,s5,a4
    80001294:	02041413          	slli	s0,s0,0x20
    80001298:	02071713          	slli	a4,a4,0x20
    8000129c:	02045413          	srli	s0,s0,0x20
    800012a0:	00e46433          	or	s0,s0,a4
    800012a4:	00863023          	sd	s0,0(a2)
    800012a8:	020a1513          	slli	a0,s4,0x20
    800012ac:	02055513          	srli	a0,a0,0x20
    800012b0:	29c000ef          	jal	ra,8000154c <__ctzdi2>
    800012b4:	00aad53b          	srlw	a0,s5,a0
    800012b8:	02051413          	slli	s0,a0,0x20
    800012bc:	02045413          	srli	s0,s0,0x20
    800012c0:	d65ff06f          	j	80001024 <__udivmoddi4+0x80>
    800012c4:	02051513          	slli	a0,a0,0x20
    800012c8:	02055513          	srli	a0,a0,0x20
    800012cc:	00b13423          	sd	a1,8(sp)
    800012d0:	2c8000ef          	jal	ra,80001598 <__clzdi2>
    800012d4:	fe05041b          	addiw	s0,a0,-32
    800012d8:	020a9513          	slli	a0,s5,0x20
    800012dc:	02055513          	srli	a0,a0,0x20
    800012e0:	2b8000ef          	jal	ra,80001598 <__clzdi2>
    800012e4:	fe05051b          	addiw	a0,a0,-32
    800012e8:	40a4053b          	subw	a0,s0,a0
    800012ec:	0215061b          	addiw	a2,a0,33
    800012f0:	02000693          	li	a3,32
    800012f4:	0004879b          	sext.w	a5,s1
    800012f8:	00813583          	ld	a1,8(sp)
    800012fc:	0ad60663          	beq	a2,a3,800013a8 <__udivmoddi4+0x404>
    80001300:	01f00693          	li	a3,31
    80001304:	0ac6e863          	bltu	a3,a2,800013b4 <__udivmoddi4+0x410>
    80001308:	02000693          	li	a3,32
    8000130c:	40c686bb          	subw	a3,a3,a2
    80001310:	00da953b          	sllw	a0,s5,a3
    80001314:	00c7d83b          	srlw	a6,a5,a2
    80001318:	00d797bb          	sllw	a5,a5,a3
    8000131c:	010566b3          	or	a3,a0,a6
    80001320:	00cad73b          	srlw	a4,s5,a2
    80001324:	02079413          	slli	s0,a5,0x20
    80001328:	00068a9b          	sext.w	s5,a3
    8000132c:	e7dff06f          	j	800011a8 <__udivmoddi4+0x204>
    80001330:	020a1513          	slli	a0,s4,0x20
    80001334:	02055513          	srli	a0,a0,0x20
    80001338:	00b13423          	sd	a1,8(sp)
    8000133c:	25c000ef          	jal	ra,80001598 <__clzdi2>
    80001340:	fe050a1b          	addiw	s4,a0,-32
    80001344:	020a9513          	slli	a0,s5,0x20
    80001348:	02055513          	srli	a0,a0,0x20
    8000134c:	24c000ef          	jal	ra,80001598 <__clzdi2>
    80001350:	fe05051b          	addiw	a0,a0,-32
    80001354:	40aa073b          	subw	a4,s4,a0
    80001358:	01e00793          	li	a5,30
    8000135c:	00813583          	ld	a1,8(sp)
    80001360:	f0e7e6e3          	bltu	a5,a4,8000126c <__udivmoddi4+0x2c8>
    80001364:	0017061b          	addiw	a2,a4,1
    80001368:	02000793          	li	a5,32
    8000136c:	40c787bb          	subw	a5,a5,a2
    80001370:	00fa96bb          	sllw	a3,s5,a5
    80001374:	00c4573b          	srlw	a4,s0,a2
    80001378:	00e6e6b3          	or	a3,a3,a4
    8000137c:	00f4143b          	sllw	s0,s0,a5
    80001380:	00cad73b          	srlw	a4,s5,a2
    80001384:	0004079b          	sext.w	a5,s0
    80001388:	00068a9b          	sext.w	s5,a3
    8000138c:	02041413          	slli	s0,s0,0x20
    80001390:	00000a13          	li	s4,0
    80001394:	e15ff06f          	j	800011a8 <__udivmoddi4+0x204>
    80001398:	02079413          	slli	s0,a5,0x20
    8000139c:	00000713          	li	a4,0
    800013a0:	00000a13          	li	s4,0
    800013a4:	e05ff06f          	j	800011a8 <__udivmoddi4+0x204>
    800013a8:	02079413          	slli	s0,a5,0x20
    800013ac:	00000713          	li	a4,0
    800013b0:	df9ff06f          	j	800011a8 <__udivmoddi4+0x204>
    800013b4:	04000a13          	li	s4,64
    800013b8:	40ca073b          	subw	a4,s4,a2
    800013bc:	0015069b          	addiw	a3,a0,1
    800013c0:	00ea983b          	sllw	a6,s5,a4
    800013c4:	00d7d53b          	srlw	a0,a5,a3
    800013c8:	00a86833          	or	a6,a6,a0
    800013cc:	00e7953b          	sllw	a0,a5,a4
    800013d0:	02051413          	slli	s0,a0,0x20
    800013d4:	0008079b          	sext.w	a5,a6
    800013d8:	02079713          	slli	a4,a5,0x20
    800013dc:	02045413          	srli	s0,s0,0x20
    800013e0:	00e46433          	or	s0,s0,a4
    800013e4:	00dadabb          	srlw	s5,s5,a3
    800013e8:	00000713          	li	a4,0
    800013ec:	00050a1b          	sext.w	s4,a0
    800013f0:	db9ff06f          	j	800011a8 <__udivmoddi4+0x204>

00000000800013f4 <__udivdi3>:
    800013f4:	00000613          	li	a2,0
    800013f8:	badff06f          	j	80000fa4 <__udivmoddi4>

00000000800013fc <__umoddi3>:
    800013fc:	fe010113          	addi	sp,sp,-32
    80001400:	00810613          	addi	a2,sp,8
    80001404:	00113c23          	sd	ra,24(sp)
    80001408:	b9dff0ef          	jal	ra,80000fa4 <__udivmoddi4>
    8000140c:	01813083          	ld	ra,24(sp)
    80001410:	00813503          	ld	a0,8(sp)
    80001414:	02010113          	addi	sp,sp,32
    80001418:	00008067          	ret

000000008000141c <__clzsi2>:
    8000141c:	ffff07b7          	lui	a5,0xffff0
    80001420:	00f577b3          	and	a5,a0,a5
    80001424:	01000713          	li	a4,16
    80001428:	00078863          	beqz	a5,80001438 <__clzsi2+0x1c>
    8000142c:	0105551b          	srliw	a0,a0,0x10
    80001430:	0005051b          	sext.w	a0,a0
    80001434:	00000713          	li	a4,0
    80001438:	000107b7          	lui	a5,0x10
    8000143c:	f0078793          	addi	a5,a5,-256 # ff00 <_entry_offset+0xff00>
    80001440:	00f577b3          	and	a5,a0,a5
    80001444:	04078663          	beqz	a5,80001490 <__clzsi2+0x74>
    80001448:	0085551b          	srliw	a0,a0,0x8
    8000144c:	0005051b          	sext.w	a0,a0
    80001450:	0f057793          	andi	a5,a0,240
    80001454:	04078463          	beqz	a5,8000149c <__clzsi2+0x80>
    80001458:	0045551b          	srliw	a0,a0,0x4
    8000145c:	0005051b          	sext.w	a0,a0
    80001460:	00c57793          	andi	a5,a0,12
    80001464:	04078263          	beqz	a5,800014a8 <__clzsi2+0x8c>
    80001468:	0025551b          	srliw	a0,a0,0x2
    8000146c:	0005051b          	sext.w	a0,a0
    80001470:	00257793          	andi	a5,a0,2
    80001474:	00200693          	li	a3,2
    80001478:	0017b793          	seqz	a5,a5
    8000147c:	40f007bb          	negw	a5,a5
    80001480:	40a6853b          	subw	a0,a3,a0
    80001484:	00a7f533          	and	a0,a5,a0
    80001488:	00e5053b          	addw	a0,a0,a4
    8000148c:	00008067          	ret
    80001490:	0f057793          	andi	a5,a0,240
    80001494:	0087071b          	addiw	a4,a4,8
    80001498:	fc0790e3          	bnez	a5,80001458 <__clzsi2+0x3c>
    8000149c:	00c57793          	andi	a5,a0,12
    800014a0:	0047071b          	addiw	a4,a4,4
    800014a4:	fc0792e3          	bnez	a5,80001468 <__clzsi2+0x4c>
    800014a8:	00257793          	andi	a5,a0,2
    800014ac:	00200693          	li	a3,2
    800014b0:	0017b793          	seqz	a5,a5
    800014b4:	40f007bb          	negw	a5,a5
    800014b8:	40a6853b          	subw	a0,a3,a0
    800014bc:	0027071b          	addiw	a4,a4,2
    800014c0:	00a7f533          	and	a0,a5,a0
    800014c4:	00e5053b          	addw	a0,a0,a4
    800014c8:	00008067          	ret

00000000800014cc <__ctzsi2>:
    800014cc:	03051793          	slli	a5,a0,0x30
    800014d0:	0307d793          	srli	a5,a5,0x30
    800014d4:	00000693          	li	a3,0
    800014d8:	00079863          	bnez	a5,800014e8 <__ctzsi2+0x1c>
    800014dc:	0105551b          	srliw	a0,a0,0x10
    800014e0:	0005051b          	sext.w	a0,a0
    800014e4:	01000693          	li	a3,16
    800014e8:	0ff57793          	andi	a5,a0,255
    800014ec:	00079863          	bnez	a5,800014fc <__ctzsi2+0x30>
    800014f0:	0085551b          	srliw	a0,a0,0x8
    800014f4:	0005051b          	sext.w	a0,a0
    800014f8:	0086869b          	addiw	a3,a3,8
    800014fc:	00f57793          	andi	a5,a0,15
    80001500:	00079863          	bnez	a5,80001510 <__ctzsi2+0x44>
    80001504:	0045551b          	srliw	a0,a0,0x4
    80001508:	0005051b          	sext.w	a0,a0
    8000150c:	0046869b          	addiw	a3,a3,4
    80001510:	00357793          	andi	a5,a0,3
    80001514:	00079863          	bnez	a5,80001524 <__ctzsi2+0x58>
    80001518:	0025551b          	srliw	a0,a0,0x2
    8000151c:	0005051b          	sext.w	a0,a0
    80001520:	0026869b          	addiw	a3,a3,2
    80001524:	0015571b          	srliw	a4,a0,0x1
    80001528:	fff54793          	not	a5,a0
    8000152c:	0017f793          	andi	a5,a5,1
    80001530:	00177513          	andi	a0,a4,1
    80001534:	00200713          	li	a4,2
    80001538:	40a7073b          	subw	a4,a4,a0
    8000153c:	40f007bb          	negw	a5,a5
    80001540:	00f777b3          	and	a5,a4,a5
    80001544:	00d7853b          	addw	a0,a5,a3
    80001548:	00008067          	ret

000000008000154c <__ctzdi2>:
    8000154c:	0005079b          	sext.w	a5,a0
    80001550:	ff010113          	addi	sp,sp,-16
    80001554:	0017b713          	seqz	a4,a5
    80001558:	00813023          	sd	s0,0(sp)
    8000155c:	42055513          	srai	a0,a0,0x20
    80001560:	40e0043b          	negw	s0,a4
    80001564:	fff7071b          	addiw	a4,a4,-1
    80001568:	00e7f7b3          	and	a5,a5,a4
    8000156c:	00a47533          	and	a0,s0,a0
    80001570:	00a7e533          	or	a0,a5,a0
    80001574:	0005051b          	sext.w	a0,a0
    80001578:	00113423          	sd	ra,8(sp)
    8000157c:	02047413          	andi	s0,s0,32
    80001580:	f4dff0ef          	jal	ra,800014cc <__ctzsi2>
    80001584:	0085053b          	addw	a0,a0,s0
    80001588:	00813083          	ld	ra,8(sp)
    8000158c:	00013403          	ld	s0,0(sp)
    80001590:	01010113          	addi	sp,sp,16
    80001594:	00008067          	ret

0000000080001598 <__clzdi2>:
    80001598:	42055713          	srai	a4,a0,0x20
    8000159c:	00173693          	seqz	a3,a4
    800015a0:	40d007bb          	negw	a5,a3
    800015a4:	fff6869b          	addiw	a3,a3,-1
    800015a8:	00d77733          	and	a4,a4,a3
    800015ac:	00f57533          	and	a0,a0,a5
    800015b0:	ff010113          	addi	sp,sp,-16
    800015b4:	00a76533          	or	a0,a4,a0
    800015b8:	00813023          	sd	s0,0(sp)
    800015bc:	0005051b          	sext.w	a0,a0
    800015c0:	0007841b          	sext.w	s0,a5
    800015c4:	00113423          	sd	ra,8(sp)
    800015c8:	02047413          	andi	s0,s0,32
    800015cc:	e51ff0ef          	jal	ra,8000141c <__clzsi2>
    800015d0:	0085053b          	addw	a0,a0,s0
    800015d4:	00813083          	ld	ra,8(sp)
    800015d8:	00013403          	ld	s0,0(sp)
    800015dc:	01010113          	addi	sp,sp,16
    800015e0:	00008067          	ret
