
/home/sazc/risc_v/git_source/am-kernels/tests/cpu-tests/build/mul-longlong-riscv64-mycpu.elf:     file format elf64-littleriscv


Disassembly of section .text:

0000000080000000 <_start>:
    80000000:	00000413          	li	s0,0
    80000004:	00009117          	auipc	sp,0x9
    80000008:	ffc10113          	addi	sp,sp,-4 # 80009000 <_end>
    8000000c:	110000ef          	jal	ra,8000011c <_trm_init>

0000000080000010 <check>:
    80000010:	00050463          	beqz	a0,80000018 <check+0x8>
    80000014:	00008067          	ret
    80000018:	ff010113          	addi	sp,sp,-16
    8000001c:	00100513          	li	a0,1
    80000020:	00113423          	sd	ra,8(sp)
    80000024:	0ec000ef          	jal	ra,80000110 <halt>

0000000080000028 <main>:
    80000028:	fb010113          	addi	sp,sp,-80
    8000002c:	03313423          	sd	s3,40(sp)
    80000030:	03413023          	sd	s4,32(sp)
    80000034:	01513c23          	sd	s5,24(sp)
    80000038:	01613823          	sd	s6,16(sp)
    8000003c:	01713423          	sd	s7,8(sp)
    80000040:	04113423          	sd	ra,72(sp)
    80000044:	04813023          	sd	s0,64(sp)
    80000048:	02913c23          	sd	s1,56(sp)
    8000004c:	03213823          	sd	s2,48(sp)
    80000050:	01813023          	sd	s8,0(sp)
    80000054:	00000b17          	auipc	s6,0x0
    80000058:	168b0b13          	addi	s6,s6,360 # 800001bc <test_data+0x4>
    8000005c:	00000a13          	li	s4,0
    80000060:	00000993          	li	s3,0
    80000064:	00000b97          	auipc	s7,0x0
    80000068:	104b8b93          	addi	s7,s7,260 # 80000168 <ans>
    8000006c:	00400a93          	li	s5,4
    80000070:	ffcb2503          	lw	a0,-4(s6)
    80000074:	003a1413          	slli	s0,s4,0x3
    80000078:	008b8433          	add	s0,s7,s0
    8000007c:	00050c13          	mv	s8,a0
    80000080:	000b0913          	mv	s2,s6
    80000084:	00098493          	mv	s1,s3
    80000088:	000c0593          	mv	a1,s8
    8000008c:	0b0000ef          	jal	ra,8000013c <__muldi3>
    80000090:	00043783          	ld	a5,0(s0)
    80000094:	0014849b          	addiw	s1,s1,1
    80000098:	00840413          	addi	s0,s0,8
    8000009c:	40a78533          	sub	a0,a5,a0
    800000a0:	00153513          	seqz	a0,a0
    800000a4:	f6dff0ef          	jal	ra,80000010 <check>
    800000a8:	01548863          	beq	s1,s5,800000b8 <main+0x90>
    800000ac:	00092503          	lw	a0,0(s2)
    800000b0:	00490913          	addi	s2,s2,4
    800000b4:	fd5ff06f          	j	80000088 <main+0x60>
    800000b8:	004a0a1b          	addiw	s4,s4,4
    800000bc:	413a0a3b          	subw	s4,s4,s3
    800000c0:	00100513          	li	a0,1
    800000c4:	0019899b          	addiw	s3,s3,1
    800000c8:	f49ff0ef          	jal	ra,80000010 <check>
    800000cc:	004b0b13          	addi	s6,s6,4
    800000d0:	fa9990e3          	bne	s3,s1,80000070 <main+0x48>
    800000d4:	00100513          	li	a0,1
    800000d8:	f39ff0ef          	jal	ra,80000010 <check>
    800000dc:	04813083          	ld	ra,72(sp)
    800000e0:	04013403          	ld	s0,64(sp)
    800000e4:	03813483          	ld	s1,56(sp)
    800000e8:	03013903          	ld	s2,48(sp)
    800000ec:	02813983          	ld	s3,40(sp)
    800000f0:	02013a03          	ld	s4,32(sp)
    800000f4:	01813a83          	ld	s5,24(sp)
    800000f8:	01013b03          	ld	s6,16(sp)
    800000fc:	00813b83          	ld	s7,8(sp)
    80000100:	00013c03          	ld	s8,0(sp)
    80000104:	00000513          	li	a0,0
    80000108:	05010113          	addi	sp,sp,80
    8000010c:	00008067          	ret

0000000080000110 <halt>:
    80000110:	00050513          	mv	a0,a0
    80000114:	0000006b          	0x6b
    80000118:	0000006f          	j	80000118 <halt+0x8>

000000008000011c <_trm_init>:
    8000011c:	ff010113          	addi	sp,sp,-16
    80000120:	00000517          	auipc	a0,0x0
    80000124:	04050513          	addi	a0,a0,64 # 80000160 <_etext>
    80000128:	00113423          	sd	ra,8(sp)
    8000012c:	efdff0ef          	jal	ra,80000028 <main>
    80000130:	00050513          	mv	a0,a0
    80000134:	0000006b          	0x6b
    80000138:	0000006f          	j	80000138 <_trm_init+0x1c>

000000008000013c <__muldi3>:
    8000013c:	00050613          	mv	a2,a0
    80000140:	00000513          	li	a0,0
    80000144:	0015f693          	andi	a3,a1,1
    80000148:	00068463          	beqz	a3,80000150 <__muldi3+0x14>
    8000014c:	00c50533          	add	a0,a0,a2
    80000150:	0015d593          	srli	a1,a1,0x1
    80000154:	00161613          	slli	a2,a2,0x1
    80000158:	fe0596e3          	bnez	a1,80000144 <__muldi3+0x8>
    8000015c:	00008067          	ret
