
build/rv64um-p-remw:     file format elf64-littleriscv


Disassembly of section .text.init:

0000000080000000 <_start>:
    80000000:	04c0006f          	j	8000004c <reset_vector>

0000000080000004 <trap_vector>:
    80000004:	34202f73          	csrr	t5,mcause
    80000008:	00800f93          	li	t6,8
    8000000c:	03ff0a63          	beq	t5,t6,80000040 <write_tohost>
    80000010:	00900f93          	li	t6,9
    80000014:	03ff0663          	beq	t5,t6,80000040 <write_tohost>
    80000018:	00b00f93          	li	t6,11
    8000001c:	03ff0263          	beq	t5,t6,80000040 <write_tohost>
    80000020:	00002f17          	auipc	t5,0x2
    80000024:	008f3f03          	ld	t5,8(t5) # 80002028 <_GLOBAL_OFFSET_TABLE_+0x28>
    80000028:	000f0463          	beqz	t5,80000030 <trap_vector+0x2c>
    8000002c:	000f0067          	jr	t5
    80000030:	34202f73          	csrr	t5,mcause
    80000034:	000f5463          	bgez	t5,8000003c <handle_exception>
    80000038:	0040006f          	j	8000003c <handle_exception>

000000008000003c <handle_exception>:
    8000003c:	5391e193          	ori	gp,gp,1337

0000000080000040 <write_tohost>:
    80000040:	00001f17          	auipc	t5,0x1
    80000044:	fc3f2023          	sw	gp,-64(t5) # 80001000 <tohost>
    80000048:	ff9ff06f          	j	80000040 <write_tohost>

000000008000004c <reset_vector>:
    8000004c:	00000093          	li	ra,0
    80000050:	00000113          	li	sp,0
    80000054:	00000193          	li	gp,0
    80000058:	00000213          	li	tp,0
    8000005c:	00000293          	li	t0,0
    80000060:	00000313          	li	t1,0
    80000064:	00000393          	li	t2,0
    80000068:	00000413          	li	s0,0
    8000006c:	00000493          	li	s1,0
    80000070:	00000513          	li	a0,0
    80000074:	00000593          	li	a1,0
    80000078:	00000613          	li	a2,0
    8000007c:	00000693          	li	a3,0
    80000080:	00000713          	li	a4,0
    80000084:	00000793          	li	a5,0
    80000088:	00000813          	li	a6,0
    8000008c:	00000893          	li	a7,0
    80000090:	00000913          	li	s2,0
    80000094:	00000993          	li	s3,0
    80000098:	00000a13          	li	s4,0
    8000009c:	00000a93          	li	s5,0
    800000a0:	00000b13          	li	s6,0
    800000a4:	00000b93          	li	s7,0
    800000a8:	00000c13          	li	s8,0
    800000ac:	00000c93          	li	s9,0
    800000b0:	00000d13          	li	s10,0
    800000b4:	00000d93          	li	s11,0
    800000b8:	00000e13          	li	t3,0
    800000bc:	00000e93          	li	t4,0
    800000c0:	00000f13          	li	t5,0
    800000c4:	00000f93          	li	t6,0
    800000c8:	f1402573          	csrr	a0,mhartid
    800000cc:	00051063          	bnez	a0,800000cc <reset_vector+0x80>
    800000d0:	00002297          	auipc	t0,0x2
    800000d4:	f402b283          	ld	t0,-192(t0) # 80002010 <_GLOBAL_OFFSET_TABLE_+0x10>
    800000d8:	30529073          	csrw	mtvec,t0
    800000dc:	18005073          	csrwi	satp,0
    800000e0:	00002297          	auipc	t0,0x2
    800000e4:	f382b283          	ld	t0,-200(t0) # 80002018 <_GLOBAL_OFFSET_TABLE_+0x18>
    800000e8:	30529073          	csrw	mtvec,t0
    800000ec:	30205073          	csrwi	medeleg,0
    800000f0:	30305073          	csrwi	mideleg,0
    800000f4:	30405073          	csrwi	mie,0
    800000f8:	00000193          	li	gp,0
    800000fc:	00002297          	auipc	t0,0x2
    80000100:	f0c2b283          	ld	t0,-244(t0) # 80002008 <_GLOBAL_OFFSET_TABLE_+0x8>
    80000104:	30529073          	csrw	mtvec,t0
    80000108:	00100513          	li	a0,1
    8000010c:	01f51513          	slli	a0,a0,0x1f
    80000110:	00055663          	bgez	a0,8000011c <reset_vector+0xd0>
    80000114:	00000513          	li	a0,0
    80000118:	0000006b          	0x6b
    8000011c:	00002297          	auipc	t0,0x2
    80000120:	f142b283          	ld	t0,-236(t0) # 80002030 <_GLOBAL_OFFSET_TABLE_+0x30>
    80000124:	00028c63          	beqz	t0,8000013c <reset_vector+0xf0>
    80000128:	10529073          	csrw	stvec,t0
    8000012c:	0000b2b7          	lui	t0,0xb
    80000130:	1092829b          	addiw	t0,t0,265
    80000134:	30229073          	csrw	medeleg,t0
    80000138:	30202373          	csrr	t1,medeleg
    8000013c:	30005073          	csrwi	mstatus,0
    80000140:	00002297          	auipc	t0,0x2
    80000144:	ee02b283          	ld	t0,-288(t0) # 80002020 <_GLOBAL_OFFSET_TABLE_+0x20>
    80000148:	34129073          	csrw	mepc,t0
    8000014c:	f1402573          	csrr	a0,mhartid
    80000150:	30200073          	mret

0000000080000154 <test_2>:
    80000154:	01400093          	li	ra,20
    80000158:	00600113          	li	sp,6
    8000015c:	0220e73b          	remw	a4,ra,sp
    80000160:	00200393          	li	t2,2
    80000164:	00200193          	li	gp,2
    80000168:	0e771063          	bne	a4,t2,80000248 <fail>

000000008000016c <test_3>:
    8000016c:	fec00093          	li	ra,-20
    80000170:	00600113          	li	sp,6
    80000174:	0220e73b          	remw	a4,ra,sp
    80000178:	ffe00393          	li	t2,-2
    8000017c:	00300193          	li	gp,3
    80000180:	0c771463          	bne	a4,t2,80000248 <fail>

0000000080000184 <test_4>:
    80000184:	01400093          	li	ra,20
    80000188:	ffa00113          	li	sp,-6
    8000018c:	0220e73b          	remw	a4,ra,sp
    80000190:	00200393          	li	t2,2
    80000194:	00400193          	li	gp,4
    80000198:	0a771863          	bne	a4,t2,80000248 <fail>

000000008000019c <test_5>:
    8000019c:	fec00093          	li	ra,-20
    800001a0:	ffa00113          	li	sp,-6
    800001a4:	0220e73b          	remw	a4,ra,sp
    800001a8:	ffe00393          	li	t2,-2
    800001ac:	00500193          	li	gp,5
    800001b0:	08771c63          	bne	a4,t2,80000248 <fail>

00000000800001b4 <test_6>:
    800001b4:	800000b7          	lui	ra,0x80000
    800001b8:	00100113          	li	sp,1
    800001bc:	0220e73b          	remw	a4,ra,sp
    800001c0:	00000393          	li	t2,0
    800001c4:	00600193          	li	gp,6
    800001c8:	08771063          	bne	a4,t2,80000248 <fail>

00000000800001cc <test_7>:
    800001cc:	800000b7          	lui	ra,0x80000
    800001d0:	fff00113          	li	sp,-1
    800001d4:	0220e73b          	remw	a4,ra,sp
    800001d8:	00000393          	li	t2,0
    800001dc:	00700193          	li	gp,7
    800001e0:	06771463          	bne	a4,t2,80000248 <fail>

00000000800001e4 <test_8>:
    800001e4:	800000b7          	lui	ra,0x80000
    800001e8:	00000113          	li	sp,0
    800001ec:	0220e73b          	remw	a4,ra,sp
    800001f0:	800003b7          	lui	t2,0x80000
    800001f4:	00800193          	li	gp,8
    800001f8:	04771863          	bne	a4,t2,80000248 <fail>

00000000800001fc <test_9>:
    800001fc:	00100093          	li	ra,1
    80000200:	00000113          	li	sp,0
    80000204:	0220e73b          	remw	a4,ra,sp
    80000208:	00100393          	li	t2,1
    8000020c:	00900193          	li	gp,9
    80000210:	02771c63          	bne	a4,t2,80000248 <fail>

0000000080000214 <test_10>:
    80000214:	00000093          	li	ra,0
    80000218:	00000113          	li	sp,0
    8000021c:	0220e73b          	remw	a4,ra,sp
    80000220:	00000393          	li	t2,0
    80000224:	00a00193          	li	gp,10
    80000228:	02771063          	bne	a4,t2,80000248 <fail>

000000008000022c <test_11>:
    8000022c:	89700093          	li	ra,-1897
    80000230:	00000113          	li	sp,0
    80000234:	0220e73b          	remw	a4,ra,sp
    80000238:	89700393          	li	t2,-1897
    8000023c:	00b00193          	li	gp,11
    80000240:	00771463          	bne	a4,t2,80000248 <fail>
    80000244:	00301663          	bne	zero,gp,80000250 <pass>

0000000080000248 <fail>:
    80000248:	00100513          	li	a0,1
    8000024c:	0000006b          	0x6b

0000000080000250 <pass>:
    80000250:	00000513          	li	a0,0
    80000254:	0000006b          	0x6b
    80000258:	00000513          	li	a0,0
    8000025c:	0000006b          	0x6b
    80000260:	0000                	unimp
    80000262:	0000                	unimp
    80000264:	0000                	unimp
    80000266:	0000                	unimp
    80000268:	0000                	unimp
    8000026a:	0000                	unimp
    8000026c:	0000                	unimp
    8000026e:	0000                	unimp
    80000270:	0000                	unimp
    80000272:	0000                	unimp
    80000274:	0000                	unimp
    80000276:	0000                	unimp
    80000278:	0000                	unimp
    8000027a:	0000                	unimp
    8000027c:	0000                	unimp
    8000027e:	0000                	unimp
    80000280:	0000                	unimp
    80000282:	0000                	unimp

Disassembly of section .tohost:

0000000080001000 <tohost>:
    80001000:	0000                	unimp
    80001002:	0000                	unimp
    80001004:	0000                	unimp
    80001006:	0000                	unimp
    80001008:	0000                	unimp
    8000100a:	0000                	unimp
    8000100c:	0000                	unimp
    8000100e:	0000                	unimp
    80001010:	0000                	unimp
    80001012:	0000                	unimp
    80001014:	0000                	unimp
    80001016:	0000                	unimp
    80001018:	0000                	unimp
    8000101a:	0000                	unimp
    8000101c:	0000                	unimp
    8000101e:	0000                	unimp
    80001020:	0000                	unimp
    80001022:	0000                	unimp
    80001024:	0000                	unimp
    80001026:	0000                	unimp
    80001028:	0000                	unimp
    8000102a:	0000                	unimp
    8000102c:	0000                	unimp
    8000102e:	0000                	unimp
    80001030:	0000                	unimp
    80001032:	0000                	unimp
    80001034:	0000                	unimp
    80001036:	0000                	unimp
    80001038:	0000                	unimp
    8000103a:	0000                	unimp
    8000103c:	0000                	unimp
    8000103e:	0000                	unimp

0000000080001040 <fromhost>:
    80001040:	0000                	unimp
    80001042:	0000                	unimp
    80001044:	0000                	unimp
    80001046:	0000                	unimp
