
build/rv64mi-p-illegal:     file format elf64-littleriscv


Disassembly of section .text.init:

0000000080000000 <_start>:
    80000000:	04c0006f          	j	8000004c <reset_vector>

0000000080000004 <trap_vector>:
    80000004:	34202f73          	csrr	t5,mcause
    80000008:	00800f93          	li	t6,8
    8000000c:	03ff0a63          	beq	t5,t6,80000040 <write_tohost>
    80000010:	00900f93          	li	t6,9
    80000014:	03ff0663          	beq	t5,t6,80000040 <write_tohost>
    80000018:	00b00f93          	li	t6,11
    8000001c:	03ff0263          	beq	t5,t6,80000040 <write_tohost>
    80000020:	00002f17          	auipc	t5,0x2
    80000024:	058f3f03          	ld	t5,88(t5) # 80002078 <_GLOBAL_OFFSET_TABLE_+0x78>
    80000028:	000f0463          	beqz	t5,80000030 <trap_vector+0x2c>
    8000002c:	000f0067          	jr	t5
    80000030:	34202f73          	csrr	t5,mcause
    80000034:	000f5463          	bgez	t5,8000003c <handle_exception>
    80000038:	0040006f          	j	8000003c <handle_exception>

000000008000003c <handle_exception>:
    8000003c:	5391e193          	ori	gp,gp,1337

0000000080000040 <write_tohost>:
    80000040:	00001f17          	auipc	t5,0x1
    80000044:	fc3f2023          	sw	gp,-64(t5) # 80001000 <tohost>
    80000048:	ff9ff06f          	j	80000040 <write_tohost>

000000008000004c <reset_vector>:
    8000004c:	00000093          	li	ra,0
    80000050:	00000113          	li	sp,0
    80000054:	00000193          	li	gp,0
    80000058:	00000213          	li	tp,0
    8000005c:	00000293          	li	t0,0
    80000060:	00000313          	li	t1,0
    80000064:	00000393          	li	t2,0
    80000068:	00000413          	li	s0,0
    8000006c:	00000493          	li	s1,0
    80000070:	00000513          	li	a0,0
    80000074:	00000593          	li	a1,0
    80000078:	00000613          	li	a2,0
    8000007c:	00000693          	li	a3,0
    80000080:	00000713          	li	a4,0
    80000084:	00000793          	li	a5,0
    80000088:	00000813          	li	a6,0
    8000008c:	00000893          	li	a7,0
    80000090:	00000913          	li	s2,0
    80000094:	00000993          	li	s3,0
    80000098:	00000a13          	li	s4,0
    8000009c:	00000a93          	li	s5,0
    800000a0:	00000b13          	li	s6,0
    800000a4:	00000b93          	li	s7,0
    800000a8:	00000c13          	li	s8,0
    800000ac:	00000c93          	li	s9,0
    800000b0:	00000d13          	li	s10,0
    800000b4:	00000d93          	li	s11,0
    800000b8:	00000e13          	li	t3,0
    800000bc:	00000e93          	li	t4,0
    800000c0:	00000f13          	li	t5,0
    800000c4:	00000f93          	li	t6,0
    800000c8:	f1402573          	csrr	a0,mhartid
    800000cc:	00051063          	bnez	a0,800000cc <reset_vector+0x80>
    800000d0:	00002297          	auipc	t0,0x2
    800000d4:	f802b283          	ld	t0,-128(t0) # 80002050 <_GLOBAL_OFFSET_TABLE_+0x50>
    800000d8:	30529073          	csrw	mtvec,t0
    800000dc:	18005073          	csrwi	satp,0
    800000e0:	00002297          	auipc	t0,0x2
    800000e4:	f782b283          	ld	t0,-136(t0) # 80002058 <_GLOBAL_OFFSET_TABLE_+0x58>
    800000e8:	30529073          	csrw	mtvec,t0
    800000ec:	30205073          	csrwi	medeleg,0
    800000f0:	30305073          	csrwi	mideleg,0
    800000f4:	30405073          	csrwi	mie,0
    800000f8:	00000193          	li	gp,0
    800000fc:	00002297          	auipc	t0,0x2
    80000100:	f0c2b283          	ld	t0,-244(t0) # 80002008 <_GLOBAL_OFFSET_TABLE_+0x8>
    80000104:	30529073          	csrw	mtvec,t0
    80000108:	00100513          	li	a0,1
    8000010c:	01f51513          	slli	a0,a0,0x1f
    80000110:	00055663          	bgez	a0,8000011c <reset_vector+0xd0>
    80000114:	00000513          	li	a0,0
    80000118:	0000006b          	0x6b
    8000011c:	00002297          	auipc	t0,0x2
    80000120:	f642b283          	ld	t0,-156(t0) # 80002080 <_GLOBAL_OFFSET_TABLE_+0x80>
    80000124:	00028c63          	beqz	t0,8000013c <reset_vector+0xf0>
    80000128:	10529073          	csrw	stvec,t0
    8000012c:	0000b2b7          	lui	t0,0xb
    80000130:	1092829b          	addiw	t0,t0,265
    80000134:	30229073          	csrw	medeleg,t0
    80000138:	30202373          	csrr	t1,medeleg
    8000013c:	30005073          	csrwi	mstatus,0
    80000140:	00002537          	lui	a0,0x2
    80000144:	8005051b          	addiw	a0,a0,-2048
    80000148:	30052073          	csrs	mstatus,a0
    8000014c:	00002297          	auipc	t0,0x2
    80000150:	f142b283          	ld	t0,-236(t0) # 80002060 <_GLOBAL_OFFSET_TABLE_+0x60>
    80000154:	34129073          	csrw	mepc,t0
    80000158:	f1402573          	csrr	a0,mhartid
    8000015c:	30200073          	mret
    80000160:	00200193          	li	gp,2

0000000080000164 <bad2>:
    80000164:	0000                	unimp
    80000166:	0000                	unimp
    80000168:	0f40006f          	j	8000025c <fail>
    8000016c:	000022b7          	lui	t0,0x2
    80000170:	8002829b          	addiw	t0,t0,-2048
    80000174:	3002b073          	csrc	mstatus,t0
    80000178:	00001337          	lui	t1,0x1
    8000017c:	8003031b          	addiw	t1,t1,-2048
    80000180:	30032073          	csrs	mstatus,t1
    80000184:	300023f3          	csrr	t2,mstatus
    80000188:	0053f3b3          	and	t2,t2,t0
    8000018c:	0c731c63          	bne	t1,t2,80000264 <pass>

0000000080000190 <test_vectored_interrupts>:
    80000190:	34415073          	csrwi	mip,2
    80000194:	30415073          	csrwi	mie,2
    80000198:	00002297          	auipc	t0,0x2
    8000019c:	ee02b283          	ld	t0,-288(t0) # 80002078 <_GLOBAL_OFFSET_TABLE_+0x78>
    800001a0:	30529473          	csrrw	s0,mtvec,t0
    800001a4:	305022f3          	csrr	t0,mtvec
    800001a8:	0012f293          	andi	t0,t0,1
    800001ac:	00028663          	beqz	t0,800001b8 <msip>
    800001b0:	30046073          	csrsi	mstatus,8
    800001b4:	0000006f          	j	800001b4 <test_vectored_interrupts+0x24>

00000000800001b8 <msip>:
    800001b8:	30541073          	csrw	mtvec,s0
    800001bc:	30315073          	csrwi	mideleg,2
    800001c0:	00002297          	auipc	t0,0x2
    800001c4:	ea82b283          	ld	t0,-344(t0) # 80002068 <_GLOBAL_OFFSET_TABLE_+0x68>
    800001c8:	34129073          	csrw	mepc,t0
    800001cc:	000022b7          	lui	t0,0x2
    800001d0:	8002829b          	addiw	t0,t0,-2048
    800001d4:	3002b073          	csrc	mstatus,t0
    800001d8:	00001337          	lui	t1,0x1
    800001dc:	8003031b          	addiw	t1,t1,-2048
    800001e0:	30032073          	csrs	mstatus,t1
    800001e4:	30200073          	mret
    800001e8:	10500073          	wfi

00000000800001ec <bad3>:
    800001ec:	0000                	unimp
    800001ee:	0000                	unimp
    800001f0:	06c0006f          	j	8000025c <fail>

00000000800001f4 <bad4>:
    800001f4:	10500073          	wfi
    800001f8:	0640006f          	j	8000025c <fail>
    800001fc:	12000073          	sfence.vma
    80000200:	180022f3          	csrr	t0,satp

0000000080000204 <bad5>:
    80000204:	0000                	unimp
    80000206:	0000                	unimp
    80000208:	0540006f          	j	8000025c <fail>

000000008000020c <bad6>:
    8000020c:	12000073          	sfence.vma
    80000210:	04c0006f          	j	8000025c <fail>

0000000080000214 <bad7>:
    80000214:	180022f3          	csrr	t0,satp
    80000218:	0440006f          	j	8000025c <fail>
    8000021c:	00002297          	auipc	t0,0x2
    80000220:	e242b283          	ld	t0,-476(t0) # 80002040 <_GLOBAL_OFFSET_TABLE_+0x40>
    80000224:	14129073          	csrw	sepc,t0
    80000228:	10000293          	li	t0,256
    8000022c:	1002a073          	csrs	sstatus,t0
    80000230:	02000293          	li	t0,32
    80000234:	1002b073          	csrc	sstatus,t0
    80000238:	10200073          	sret

000000008000023c <bad8>:
    8000023c:	0000                	unimp
    8000023e:	0000                	unimp
    80000240:	01c0006f          	j	8000025c <fail>
    80000244:	00002297          	auipc	t0,0x2
    80000248:	e2c2b283          	ld	t0,-468(t0) # 80002070 <_GLOBAL_OFFSET_TABLE_+0x70>
    8000024c:	14129073          	csrw	sepc,t0

0000000080000250 <bad9>:
    80000250:	10200073          	sret
    80000254:	0080006f          	j	8000025c <fail>
    80000258:	00301663          	bne	zero,gp,80000264 <pass>

000000008000025c <fail>:
    8000025c:	00100513          	li	a0,1
    80000260:	0000006b          	0x6b

0000000080000264 <pass>:
    80000264:	00000513          	li	a0,0
    80000268:	0000006b          	0x6b
    8000026c:	00000013          	nop
    80000270:	00000013          	nop
    80000274:	00000013          	nop
    80000278:	00000013          	nop
    8000027c:	00000013          	nop
    80000280:	00000013          	nop
    80000284:	00000013          	nop
    80000288:	00000013          	nop
    8000028c:	00000013          	nop
    80000290:	00000013          	nop
    80000294:	00000013          	nop
    80000298:	00000013          	nop
    8000029c:	00000013          	nop
    800002a0:	00000013          	nop
    800002a4:	00000013          	nop
    800002a8:	00000013          	nop
    800002ac:	00000013          	nop
    800002b0:	00000013          	nop
    800002b4:	00000013          	nop
    800002b8:	00000013          	nop
    800002bc:	00000013          	nop
    800002c0:	00000013          	nop
    800002c4:	00000013          	nop
    800002c8:	00000013          	nop
    800002cc:	00000013          	nop
    800002d0:	00000013          	nop
    800002d4:	00000013          	nop
    800002d8:	00000013          	nop
    800002dc:	00000013          	nop
    800002e0:	00000013          	nop
    800002e4:	00000013          	nop
    800002e8:	00000013          	nop
    800002ec:	00000013          	nop
    800002f0:	00000013          	nop
    800002f4:	00000013          	nop
    800002f8:	00000013          	nop
    800002fc:	00000013          	nop

0000000080000300 <mtvec_handler>:
    80000300:	0400006f          	j	80000340 <synchronous_exception>
    80000304:	eb5ff06f          	j	800001b8 <msip>
    80000308:	f55ff06f          	j	8000025c <fail>
    8000030c:	f51ff06f          	j	8000025c <fail>
    80000310:	f4dff06f          	j	8000025c <fail>
    80000314:	f49ff06f          	j	8000025c <fail>
    80000318:	f45ff06f          	j	8000025c <fail>
    8000031c:	f41ff06f          	j	8000025c <fail>
    80000320:	f3dff06f          	j	8000025c <fail>
    80000324:	f39ff06f          	j	8000025c <fail>
    80000328:	f35ff06f          	j	8000025c <fail>
    8000032c:	f31ff06f          	j	8000025c <fail>
    80000330:	f2dff06f          	j	8000025c <fail>
    80000334:	f29ff06f          	j	8000025c <fail>
    80000338:	f25ff06f          	j	8000025c <fail>
    8000033c:	f21ff06f          	j	8000025c <fail>

0000000080000340 <synchronous_exception>:
    80000340:	00200313          	li	t1,2
    80000344:	342022f3          	csrr	t0,mcause
    80000348:	f0629ae3          	bne	t0,t1,8000025c <fail>
    8000034c:	341022f3          	csrr	t0,mepc
    80000350:	343023f3          	csrr	t2,mtval
    80000354:	00038e63          	beqz	t2,80000370 <synchronous_exception+0x30>
    80000358:	0002d303          	lhu	t1,0(t0)
    8000035c:	0063c3b3          	xor	t2,t2,t1
    80000360:	0022d303          	lhu	t1,2(t0)
    80000364:	01031313          	slli	t1,t1,0x10
    80000368:	0063c3b3          	xor	t2,t2,t1
    8000036c:	ee0398e3          	bnez	t2,8000025c <fail>
    80000370:	00002317          	auipc	t1,0x2
    80000374:	ca033303          	ld	t1,-864(t1) # 80002010 <_GLOBAL_OFFSET_TABLE_+0x10>
    80000378:	04628e63          	beq	t0,t1,800003d4 <synchronous_exception+0x94>
    8000037c:	00002317          	auipc	t1,0x2
    80000380:	c9c33303          	ld	t1,-868(t1) # 80002018 <_GLOBAL_OFFSET_TABLE_+0x18>
    80000384:	04628e63          	beq	t0,t1,800003e0 <synchronous_exception+0xa0>
    80000388:	00002317          	auipc	t1,0x2
    8000038c:	c9833303          	ld	t1,-872(t1) # 80002020 <_GLOBAL_OFFSET_TABLE_+0x20>
    80000390:	04628263          	beq	t0,t1,800003d4 <synchronous_exception+0x94>
    80000394:	00002317          	auipc	t1,0x2
    80000398:	c9433303          	ld	t1,-876(t1) # 80002028 <_GLOBAL_OFFSET_TABLE_+0x28>
    8000039c:	04628863          	beq	t0,t1,800003ec <synchronous_exception+0xac>
    800003a0:	00002317          	auipc	t1,0x2
    800003a4:	c9033303          	ld	t1,-880(t1) # 80002030 <_GLOBAL_OFFSET_TABLE_+0x30>
    800003a8:	02628663          	beq	t0,t1,800003d4 <synchronous_exception+0x94>
    800003ac:	00002317          	auipc	t1,0x2
    800003b0:	c8c33303          	ld	t1,-884(t1) # 80002038 <_GLOBAL_OFFSET_TABLE_+0x38>
    800003b4:	02628063          	beq	t0,t1,800003d4 <synchronous_exception+0x94>
    800003b8:	00002317          	auipc	t1,0x2
    800003bc:	c8833303          	ld	t1,-888(t1) # 80002040 <_GLOBAL_OFFSET_TABLE_+0x40>
    800003c0:	02628c63          	beq	t0,t1,800003f8 <synchronous_exception+0xb8>
    800003c4:	00002317          	auipc	t1,0x2
    800003c8:	c8433303          	ld	t1,-892(t1) # 80002048 <_GLOBAL_OFFSET_TABLE_+0x48>
    800003cc:	02628c63          	beq	t0,t1,80000404 <synchronous_exception+0xc4>
    800003d0:	e8dff06f          	j	8000025c <fail>
    800003d4:	00828293          	addi	t0,t0,8
    800003d8:	34129073          	csrw	mepc,t0
    800003dc:	30200073          	mret
    800003e0:	00200337          	lui	t1,0x200
    800003e4:	30032073          	csrs	mstatus,t1
    800003e8:	fedff06f          	j	800003d4 <synchronous_exception+0x94>
    800003ec:	00100337          	lui	t1,0x100
    800003f0:	30032073          	csrs	mstatus,t1
    800003f4:	fe1ff06f          	j	800003d4 <synchronous_exception+0x94>
    800003f8:	00400337          	lui	t1,0x400
    800003fc:	30032073          	csrs	mstatus,t1
    80000400:	fd5ff06f          	j	800003d4 <synchronous_exception+0x94>
    80000404:	fd1ff06f          	j	800003d4 <synchronous_exception+0x94>
    80000408:	00000513          	li	a0,0
    8000040c:	0000006b          	0x6b
    80000410:	0000                	unimp
    80000412:	0000                	unimp
    80000414:	0000                	unimp
    80000416:	0000                	unimp
    80000418:	0000                	unimp
    8000041a:	0000                	unimp
    8000041c:	0000                	unimp
    8000041e:	0000                	unimp
    80000420:	0000                	unimp
    80000422:	0000                	unimp
    80000424:	0000                	unimp
    80000426:	0000                	unimp
    80000428:	0000                	unimp
    8000042a:	0000                	unimp
    8000042c:	0000                	unimp
    8000042e:	0000                	unimp
    80000430:	0000                	unimp
    80000432:	0000                	unimp
    80000434:	0000                	unimp
    80000436:	0000                	unimp
    80000438:	0000                	unimp
    8000043a:	0000                	unimp
    8000043c:	0000                	unimp
    8000043e:	0000                	unimp
    80000440:	0000                	unimp
    80000442:	0000                	unimp
    80000444:	0000                	unimp
    80000446:	0000                	unimp
    80000448:	0000                	unimp
    8000044a:	0000                	unimp
    8000044c:	0000                	unimp
    8000044e:	0000                	unimp
    80000450:	0000                	unimp
    80000452:	0000                	unimp
    80000454:	0000                	unimp
    80000456:	0000                	unimp
    80000458:	0000                	unimp
    8000045a:	0000                	unimp

Disassembly of section .tohost:

0000000080001000 <tohost>:
    80001000:	0000                	unimp
    80001002:	0000                	unimp
    80001004:	0000                	unimp
    80001006:	0000                	unimp
    80001008:	0000                	unimp
    8000100a:	0000                	unimp
    8000100c:	0000                	unimp
    8000100e:	0000                	unimp
    80001010:	0000                	unimp
    80001012:	0000                	unimp
    80001014:	0000                	unimp
    80001016:	0000                	unimp
    80001018:	0000                	unimp
    8000101a:	0000                	unimp
    8000101c:	0000                	unimp
    8000101e:	0000                	unimp
    80001020:	0000                	unimp
    80001022:	0000                	unimp
    80001024:	0000                	unimp
    80001026:	0000                	unimp
    80001028:	0000                	unimp
    8000102a:	0000                	unimp
    8000102c:	0000                	unimp
    8000102e:	0000                	unimp
    80001030:	0000                	unimp
    80001032:	0000                	unimp
    80001034:	0000                	unimp
    80001036:	0000                	unimp
    80001038:	0000                	unimp
    8000103a:	0000                	unimp
    8000103c:	0000                	unimp
    8000103e:	0000                	unimp

0000000080001040 <fromhost>:
    80001040:	0000                	unimp
    80001042:	0000                	unimp
    80001044:	0000                	unimp
    80001046:	0000                	unimp
