
build/rv64um-p-mulhu:     file format elf64-littleriscv


Disassembly of section .text.init:

0000000080000000 <_start>:
    80000000:	04c0006f          	j	8000004c <reset_vector>

0000000080000004 <trap_vector>:
    80000004:	34202f73          	csrr	t5,mcause
    80000008:	00800f93          	li	t6,8
    8000000c:	03ff0a63          	beq	t5,t6,80000040 <write_tohost>
    80000010:	00900f93          	li	t6,9
    80000014:	03ff0663          	beq	t5,t6,80000040 <write_tohost>
    80000018:	00b00f93          	li	t6,11
    8000001c:	03ff0263          	beq	t5,t6,80000040 <write_tohost>
    80000020:	00002f17          	auipc	t5,0x2
    80000024:	008f3f03          	ld	t5,8(t5) # 80002028 <_GLOBAL_OFFSET_TABLE_+0x28>
    80000028:	000f0463          	beqz	t5,80000030 <trap_vector+0x2c>
    8000002c:	000f0067          	jr	t5
    80000030:	34202f73          	csrr	t5,mcause
    80000034:	000f5463          	bgez	t5,8000003c <handle_exception>
    80000038:	0040006f          	j	8000003c <handle_exception>

000000008000003c <handle_exception>:
    8000003c:	5391e193          	ori	gp,gp,1337

0000000080000040 <write_tohost>:
    80000040:	00001f17          	auipc	t5,0x1
    80000044:	fc3f2023          	sw	gp,-64(t5) # 80001000 <tohost>
    80000048:	ff9ff06f          	j	80000040 <write_tohost>

000000008000004c <reset_vector>:
    8000004c:	00000093          	li	ra,0
    80000050:	00000113          	li	sp,0
    80000054:	00000193          	li	gp,0
    80000058:	00000213          	li	tp,0
    8000005c:	00000293          	li	t0,0
    80000060:	00000313          	li	t1,0
    80000064:	00000393          	li	t2,0
    80000068:	00000413          	li	s0,0
    8000006c:	00000493          	li	s1,0
    80000070:	00000513          	li	a0,0
    80000074:	00000593          	li	a1,0
    80000078:	00000613          	li	a2,0
    8000007c:	00000693          	li	a3,0
    80000080:	00000713          	li	a4,0
    80000084:	00000793          	li	a5,0
    80000088:	00000813          	li	a6,0
    8000008c:	00000893          	li	a7,0
    80000090:	00000913          	li	s2,0
    80000094:	00000993          	li	s3,0
    80000098:	00000a13          	li	s4,0
    8000009c:	00000a93          	li	s5,0
    800000a0:	00000b13          	li	s6,0
    800000a4:	00000b93          	li	s7,0
    800000a8:	00000c13          	li	s8,0
    800000ac:	00000c93          	li	s9,0
    800000b0:	00000d13          	li	s10,0
    800000b4:	00000d93          	li	s11,0
    800000b8:	00000e13          	li	t3,0
    800000bc:	00000e93          	li	t4,0
    800000c0:	00000f13          	li	t5,0
    800000c4:	00000f93          	li	t6,0
    800000c8:	f1402573          	csrr	a0,mhartid
    800000cc:	00051063          	bnez	a0,800000cc <reset_vector+0x80>
    800000d0:	00002297          	auipc	t0,0x2
    800000d4:	f402b283          	ld	t0,-192(t0) # 80002010 <_GLOBAL_OFFSET_TABLE_+0x10>
    800000d8:	30529073          	csrw	mtvec,t0
    800000dc:	18005073          	csrwi	satp,0
    800000e0:	00002297          	auipc	t0,0x2
    800000e4:	f382b283          	ld	t0,-200(t0) # 80002018 <_GLOBAL_OFFSET_TABLE_+0x18>
    800000e8:	30529073          	csrw	mtvec,t0
    800000ec:	30205073          	csrwi	medeleg,0
    800000f0:	30305073          	csrwi	mideleg,0
    800000f4:	30405073          	csrwi	mie,0
    800000f8:	00000193          	li	gp,0
    800000fc:	00002297          	auipc	t0,0x2
    80000100:	f0c2b283          	ld	t0,-244(t0) # 80002008 <_GLOBAL_OFFSET_TABLE_+0x8>
    80000104:	30529073          	csrw	mtvec,t0
    80000108:	00100513          	li	a0,1
    8000010c:	01f51513          	slli	a0,a0,0x1f
    80000110:	00055663          	bgez	a0,8000011c <reset_vector+0xd0>
    80000114:	00000513          	li	a0,0
    80000118:	0000006b          	0x6b
    8000011c:	00002297          	auipc	t0,0x2
    80000120:	f142b283          	ld	t0,-236(t0) # 80002030 <_GLOBAL_OFFSET_TABLE_+0x30>
    80000124:	00028c63          	beqz	t0,8000013c <reset_vector+0xf0>
    80000128:	10529073          	csrw	stvec,t0
    8000012c:	0000b2b7          	lui	t0,0xb
    80000130:	1092829b          	addiw	t0,t0,265
    80000134:	30229073          	csrw	medeleg,t0
    80000138:	30202373          	csrr	t1,medeleg
    8000013c:	30005073          	csrwi	mstatus,0
    80000140:	00002297          	auipc	t0,0x2
    80000144:	ee02b283          	ld	t0,-288(t0) # 80002020 <_GLOBAL_OFFSET_TABLE_+0x20>
    80000148:	34129073          	csrw	mepc,t0
    8000014c:	f1402573          	csrr	a0,mhartid
    80000150:	30200073          	mret

0000000080000154 <test_2>:
    80000154:	00000093          	li	ra,0
    80000158:	00000113          	li	sp,0
    8000015c:	0220b733          	mulhu	a4,ra,sp
    80000160:	00000393          	li	t2,0
    80000164:	00200193          	li	gp,2
    80000168:	4e771063          	bne	a4,t2,80000648 <fail>

000000008000016c <test_3>:
    8000016c:	00100093          	li	ra,1
    80000170:	00100113          	li	sp,1
    80000174:	0220b733          	mulhu	a4,ra,sp
    80000178:	00000393          	li	t2,0
    8000017c:	00300193          	li	gp,3
    80000180:	4c771463          	bne	a4,t2,80000648 <fail>

0000000080000184 <test_4>:
    80000184:	00300093          	li	ra,3
    80000188:	00700113          	li	sp,7
    8000018c:	0220b733          	mulhu	a4,ra,sp
    80000190:	00000393          	li	t2,0
    80000194:	00400193          	li	gp,4
    80000198:	4a771863          	bne	a4,t2,80000648 <fail>

000000008000019c <test_5>:
    8000019c:	00000093          	li	ra,0
    800001a0:	ffff8137          	lui	sp,0xffff8
    800001a4:	0220b733          	mulhu	a4,ra,sp
    800001a8:	00000393          	li	t2,0
    800001ac:	00500193          	li	gp,5
    800001b0:	48771c63          	bne	a4,t2,80000648 <fail>

00000000800001b4 <test_6>:
    800001b4:	800000b7          	lui	ra,0x80000
    800001b8:	00000113          	li	sp,0
    800001bc:	0220b733          	mulhu	a4,ra,sp
    800001c0:	00000393          	li	t2,0
    800001c4:	00600193          	li	gp,6
    800001c8:	48771063          	bne	a4,t2,80000648 <fail>

00000000800001cc <test_7>:
    800001cc:	800000b7          	lui	ra,0x80000
    800001d0:	ffff8137          	lui	sp,0xffff8
    800001d4:	0220b733          	mulhu	a4,ra,sp
    800001d8:	ffff03b7          	lui	t2,0xffff0
    800001dc:	fff3839b          	addiw	t2,t2,-1
    800001e0:	00f39393          	slli	t2,t2,0xf
    800001e4:	00700193          	li	gp,7
    800001e8:	46771063          	bne	a4,t2,80000648 <fail>

00000000800001ec <test_30>:
    800001ec:	faaab0b7          	lui	ra,0xfaaab
    800001f0:	aab0809b          	addiw	ra,ra,-1365
    800001f4:	00c09093          	slli	ra,ra,0xc
    800001f8:	aab08093          	addi	ra,ra,-1365 # fffffffffaaaaaab <_end+0xffffffff7aaa8a63>
    800001fc:	00c09093          	slli	ra,ra,0xc
    80000200:	aab08093          	addi	ra,ra,-1365
    80000204:	00c09093          	slli	ra,ra,0xc
    80000208:	aab08093          	addi	ra,ra,-1365
    8000020c:	00030137          	lui	sp,0x30
    80000210:	e7d1011b          	addiw	sp,sp,-387
    80000214:	0220b733          	mulhu	a4,ra,sp
    80000218:	000203b7          	lui	t2,0x20
    8000021c:	efe3839b          	addiw	t2,t2,-258
    80000220:	01e00193          	li	gp,30
    80000224:	42771263          	bne	a4,t2,80000648 <fail>

0000000080000228 <test_31>:
    80000228:	000300b7          	lui	ra,0x30
    8000022c:	e7d0809b          	addiw	ra,ra,-387
    80000230:	faaab137          	lui	sp,0xfaaab
    80000234:	aab1011b          	addiw	sp,sp,-1365
    80000238:	00c11113          	slli	sp,sp,0xc
    8000023c:	aab10113          	addi	sp,sp,-1365 # fffffffffaaaaaab <_end+0xffffffff7aaa8a63>
    80000240:	00c11113          	slli	sp,sp,0xc
    80000244:	aab10113          	addi	sp,sp,-1365
    80000248:	00c11113          	slli	sp,sp,0xc
    8000024c:	aab10113          	addi	sp,sp,-1365
    80000250:	0220b733          	mulhu	a4,ra,sp
    80000254:	000203b7          	lui	t2,0x20
    80000258:	efe3839b          	addiw	t2,t2,-258
    8000025c:	01f00193          	li	gp,31
    80000260:	3e771463          	bne	a4,t2,80000648 <fail>

0000000080000264 <test_8>:
    80000264:	00d0009b          	addiw	ra,zero,13
    80000268:	02009093          	slli	ra,ra,0x20
    8000026c:	00b0011b          	addiw	sp,zero,11
    80000270:	02011113          	slli	sp,sp,0x20
    80000274:	0220b0b3          	mulhu	ra,ra,sp
    80000278:	08f00393          	li	t2,143
    8000027c:	00800193          	li	gp,8
    80000280:	3c709463          	bne	ra,t2,80000648 <fail>

0000000080000284 <test_9>:
    80000284:	0070009b          	addiw	ra,zero,7
    80000288:	02109093          	slli	ra,ra,0x21
    8000028c:	00b0011b          	addiw	sp,zero,11
    80000290:	02011113          	slli	sp,sp,0x20
    80000294:	0220b133          	mulhu	sp,ra,sp
    80000298:	09a00393          	li	t2,154
    8000029c:	00900193          	li	gp,9
    800002a0:	3a711463          	bne	sp,t2,80000648 <fail>

00000000800002a4 <test_10>:
    800002a4:	00d0009b          	addiw	ra,zero,13
    800002a8:	02009093          	slli	ra,ra,0x20
    800002ac:	0210b0b3          	mulhu	ra,ra,ra
    800002b0:	0a900393          	li	t2,169
    800002b4:	00a00193          	li	gp,10
    800002b8:	38709863          	bne	ra,t2,80000648 <fail>

00000000800002bc <test_11>:
    800002bc:	00000213          	li	tp,0
    800002c0:	00d0009b          	addiw	ra,zero,13
    800002c4:	02009093          	slli	ra,ra,0x20
    800002c8:	00b0011b          	addiw	sp,zero,11
    800002cc:	02011113          	slli	sp,sp,0x20
    800002d0:	0220b733          	mulhu	a4,ra,sp
    800002d4:	00070313          	mv	t1,a4
    800002d8:	00120213          	addi	tp,tp,1 # 1 <_start-0x7fffffff>
    800002dc:	00200293          	li	t0,2
    800002e0:	fe5210e3          	bne	tp,t0,800002c0 <test_11+0x4>
    800002e4:	08f00393          	li	t2,143
    800002e8:	00b00193          	li	gp,11
    800002ec:	34731e63          	bne	t1,t2,80000648 <fail>

00000000800002f0 <test_12>:
    800002f0:	00000213          	li	tp,0
    800002f4:	0070009b          	addiw	ra,zero,7
    800002f8:	02109093          	slli	ra,ra,0x21
    800002fc:	00b0011b          	addiw	sp,zero,11
    80000300:	02011113          	slli	sp,sp,0x20
    80000304:	0220b733          	mulhu	a4,ra,sp
    80000308:	00000013          	nop
    8000030c:	00070313          	mv	t1,a4
    80000310:	00120213          	addi	tp,tp,1 # 1 <_start-0x7fffffff>
    80000314:	00200293          	li	t0,2
    80000318:	fc521ee3          	bne	tp,t0,800002f4 <test_12+0x4>
    8000031c:	09a00393          	li	t2,154
    80000320:	00c00193          	li	gp,12
    80000324:	32731263          	bne	t1,t2,80000648 <fail>

0000000080000328 <test_13>:
    80000328:	00000213          	li	tp,0
    8000032c:	00f0009b          	addiw	ra,zero,15
    80000330:	02009093          	slli	ra,ra,0x20
    80000334:	00b0011b          	addiw	sp,zero,11
    80000338:	02011113          	slli	sp,sp,0x20
    8000033c:	0220b733          	mulhu	a4,ra,sp
    80000340:	00000013          	nop
    80000344:	00000013          	nop
    80000348:	00070313          	mv	t1,a4
    8000034c:	00120213          	addi	tp,tp,1 # 1 <_start-0x7fffffff>
    80000350:	00200293          	li	t0,2
    80000354:	fc521ce3          	bne	tp,t0,8000032c <test_13+0x4>
    80000358:	0a500393          	li	t2,165
    8000035c:	00d00193          	li	gp,13
    80000360:	2e731463          	bne	t1,t2,80000648 <fail>

0000000080000364 <test_14>:
    80000364:	00000213          	li	tp,0
    80000368:	00d0009b          	addiw	ra,zero,13
    8000036c:	02009093          	slli	ra,ra,0x20
    80000370:	00b0011b          	addiw	sp,zero,11
    80000374:	02011113          	slli	sp,sp,0x20
    80000378:	0220b733          	mulhu	a4,ra,sp
    8000037c:	00120213          	addi	tp,tp,1 # 1 <_start-0x7fffffff>
    80000380:	00200293          	li	t0,2
    80000384:	fe5212e3          	bne	tp,t0,80000368 <test_14+0x4>
    80000388:	08f00393          	li	t2,143
    8000038c:	00e00193          	li	gp,14
    80000390:	2a771c63          	bne	a4,t2,80000648 <fail>

0000000080000394 <test_15>:
    80000394:	00000213          	li	tp,0
    80000398:	0070009b          	addiw	ra,zero,7
    8000039c:	02109093          	slli	ra,ra,0x21
    800003a0:	00b0011b          	addiw	sp,zero,11
    800003a4:	02011113          	slli	sp,sp,0x20
    800003a8:	00000013          	nop
    800003ac:	0220b733          	mulhu	a4,ra,sp
    800003b0:	00120213          	addi	tp,tp,1 # 1 <_start-0x7fffffff>
    800003b4:	00200293          	li	t0,2
    800003b8:	fe5210e3          	bne	tp,t0,80000398 <test_15+0x4>
    800003bc:	09a00393          	li	t2,154
    800003c0:	00f00193          	li	gp,15
    800003c4:	28771263          	bne	a4,t2,80000648 <fail>

00000000800003c8 <test_16>:
    800003c8:	00000213          	li	tp,0
    800003cc:	00f0009b          	addiw	ra,zero,15
    800003d0:	02009093          	slli	ra,ra,0x20
    800003d4:	00b0011b          	addiw	sp,zero,11
    800003d8:	02011113          	slli	sp,sp,0x20
    800003dc:	00000013          	nop
    800003e0:	00000013          	nop
    800003e4:	0220b733          	mulhu	a4,ra,sp
    800003e8:	00120213          	addi	tp,tp,1 # 1 <_start-0x7fffffff>
    800003ec:	00200293          	li	t0,2
    800003f0:	fc521ee3          	bne	tp,t0,800003cc <test_16+0x4>
    800003f4:	0a500393          	li	t2,165
    800003f8:	01000193          	li	gp,16
    800003fc:	24771663          	bne	a4,t2,80000648 <fail>

0000000080000400 <test_17>:
    80000400:	00000213          	li	tp,0
    80000404:	00d0009b          	addiw	ra,zero,13
    80000408:	02009093          	slli	ra,ra,0x20
    8000040c:	00000013          	nop
    80000410:	00b0011b          	addiw	sp,zero,11
    80000414:	02011113          	slli	sp,sp,0x20
    80000418:	0220b733          	mulhu	a4,ra,sp
    8000041c:	00120213          	addi	tp,tp,1 # 1 <_start-0x7fffffff>
    80000420:	00200293          	li	t0,2
    80000424:	fe5210e3          	bne	tp,t0,80000404 <test_17+0x4>
    80000428:	08f00393          	li	t2,143
    8000042c:	01100193          	li	gp,17
    80000430:	20771c63          	bne	a4,t2,80000648 <fail>

0000000080000434 <test_18>:
    80000434:	00000213          	li	tp,0
    80000438:	0070009b          	addiw	ra,zero,7
    8000043c:	02109093          	slli	ra,ra,0x21
    80000440:	00000013          	nop
    80000444:	00b0011b          	addiw	sp,zero,11
    80000448:	02011113          	slli	sp,sp,0x20
    8000044c:	00000013          	nop
    80000450:	0220b733          	mulhu	a4,ra,sp
    80000454:	00120213          	addi	tp,tp,1 # 1 <_start-0x7fffffff>
    80000458:	00200293          	li	t0,2
    8000045c:	fc521ee3          	bne	tp,t0,80000438 <test_18+0x4>
    80000460:	09a00393          	li	t2,154
    80000464:	01200193          	li	gp,18
    80000468:	1e771063          	bne	a4,t2,80000648 <fail>

000000008000046c <test_19>:
    8000046c:	00000213          	li	tp,0
    80000470:	00f0009b          	addiw	ra,zero,15
    80000474:	02009093          	slli	ra,ra,0x20
    80000478:	00000013          	nop
    8000047c:	00000013          	nop
    80000480:	00b0011b          	addiw	sp,zero,11
    80000484:	02011113          	slli	sp,sp,0x20
    80000488:	0220b733          	mulhu	a4,ra,sp
    8000048c:	00120213          	addi	tp,tp,1 # 1 <_start-0x7fffffff>
    80000490:	00200293          	li	t0,2
    80000494:	fc521ee3          	bne	tp,t0,80000470 <test_19+0x4>
    80000498:	0a500393          	li	t2,165
    8000049c:	01300193          	li	gp,19
    800004a0:	1a771463          	bne	a4,t2,80000648 <fail>

00000000800004a4 <test_20>:
    800004a4:	00000213          	li	tp,0
    800004a8:	00b0011b          	addiw	sp,zero,11
    800004ac:	02011113          	slli	sp,sp,0x20
    800004b0:	00d0009b          	addiw	ra,zero,13
    800004b4:	02009093          	slli	ra,ra,0x20
    800004b8:	0220b733          	mulhu	a4,ra,sp
    800004bc:	00120213          	addi	tp,tp,1 # 1 <_start-0x7fffffff>
    800004c0:	00200293          	li	t0,2
    800004c4:	fe5212e3          	bne	tp,t0,800004a8 <test_20+0x4>
    800004c8:	08f00393          	li	t2,143
    800004cc:	01400193          	li	gp,20
    800004d0:	16771c63          	bne	a4,t2,80000648 <fail>

00000000800004d4 <test_21>:
    800004d4:	00000213          	li	tp,0
    800004d8:	00b0011b          	addiw	sp,zero,11
    800004dc:	02011113          	slli	sp,sp,0x20
    800004e0:	0070009b          	addiw	ra,zero,7
    800004e4:	02109093          	slli	ra,ra,0x21
    800004e8:	00000013          	nop
    800004ec:	0220b733          	mulhu	a4,ra,sp
    800004f0:	00120213          	addi	tp,tp,1 # 1 <_start-0x7fffffff>
    800004f4:	00200293          	li	t0,2
    800004f8:	fe5210e3          	bne	tp,t0,800004d8 <test_21+0x4>
    800004fc:	09a00393          	li	t2,154
    80000500:	01500193          	li	gp,21
    80000504:	14771263          	bne	a4,t2,80000648 <fail>

0000000080000508 <test_22>:
    80000508:	00000213          	li	tp,0
    8000050c:	00b0011b          	addiw	sp,zero,11
    80000510:	02011113          	slli	sp,sp,0x20
    80000514:	00f0009b          	addiw	ra,zero,15
    80000518:	02009093          	slli	ra,ra,0x20
    8000051c:	00000013          	nop
    80000520:	00000013          	nop
    80000524:	0220b733          	mulhu	a4,ra,sp
    80000528:	00120213          	addi	tp,tp,1 # 1 <_start-0x7fffffff>
    8000052c:	00200293          	li	t0,2
    80000530:	fc521ee3          	bne	tp,t0,8000050c <test_22+0x4>
    80000534:	0a500393          	li	t2,165
    80000538:	01600193          	li	gp,22
    8000053c:	10771663          	bne	a4,t2,80000648 <fail>

0000000080000540 <test_23>:
    80000540:	00000213          	li	tp,0
    80000544:	00b0011b          	addiw	sp,zero,11
    80000548:	02011113          	slli	sp,sp,0x20
    8000054c:	00000013          	nop
    80000550:	00d0009b          	addiw	ra,zero,13
    80000554:	02009093          	slli	ra,ra,0x20
    80000558:	0220b733          	mulhu	a4,ra,sp
    8000055c:	00120213          	addi	tp,tp,1 # 1 <_start-0x7fffffff>
    80000560:	00200293          	li	t0,2
    80000564:	fe5210e3          	bne	tp,t0,80000544 <test_23+0x4>
    80000568:	08f00393          	li	t2,143
    8000056c:	01700193          	li	gp,23
    80000570:	0c771c63          	bne	a4,t2,80000648 <fail>

0000000080000574 <test_24>:
    80000574:	00000213          	li	tp,0
    80000578:	00b0011b          	addiw	sp,zero,11
    8000057c:	02011113          	slli	sp,sp,0x20
    80000580:	00000013          	nop
    80000584:	0070009b          	addiw	ra,zero,7
    80000588:	02109093          	slli	ra,ra,0x21
    8000058c:	00000013          	nop
    80000590:	0220b733          	mulhu	a4,ra,sp
    80000594:	00120213          	addi	tp,tp,1 # 1 <_start-0x7fffffff>
    80000598:	00200293          	li	t0,2
    8000059c:	fc521ee3          	bne	tp,t0,80000578 <test_24+0x4>
    800005a0:	09a00393          	li	t2,154
    800005a4:	01800193          	li	gp,24
    800005a8:	0a771063          	bne	a4,t2,80000648 <fail>

00000000800005ac <test_25>:
    800005ac:	00000213          	li	tp,0
    800005b0:	00b0011b          	addiw	sp,zero,11
    800005b4:	02011113          	slli	sp,sp,0x20
    800005b8:	00000013          	nop
    800005bc:	00000013          	nop
    800005c0:	00f0009b          	addiw	ra,zero,15
    800005c4:	02009093          	slli	ra,ra,0x20
    800005c8:	0220b733          	mulhu	a4,ra,sp
    800005cc:	00120213          	addi	tp,tp,1 # 1 <_start-0x7fffffff>
    800005d0:	00200293          	li	t0,2
    800005d4:	fc521ee3          	bne	tp,t0,800005b0 <test_25+0x4>
    800005d8:	0a500393          	li	t2,165
    800005dc:	01900193          	li	gp,25
    800005e0:	06771463          	bne	a4,t2,80000648 <fail>

00000000800005e4 <test_26>:
    800005e4:	01f0009b          	addiw	ra,zero,31
    800005e8:	02009093          	slli	ra,ra,0x20
    800005ec:	02103133          	mulhu	sp,zero,ra
    800005f0:	00000393          	li	t2,0
    800005f4:	01a00193          	li	gp,26
    800005f8:	04711863          	bne	sp,t2,80000648 <fail>

00000000800005fc <test_27>:
    800005fc:	0010009b          	addiw	ra,zero,1
    80000600:	02509093          	slli	ra,ra,0x25
    80000604:	0200b133          	mulhu	sp,ra,zero
    80000608:	00000393          	li	t2,0
    8000060c:	01b00193          	li	gp,27
    80000610:	02711c63          	bne	sp,t2,80000648 <fail>

0000000080000614 <test_28>:
    80000614:	020030b3          	mulhu	ra,zero,zero
    80000618:	00000393          	li	t2,0
    8000061c:	01c00193          	li	gp,28
    80000620:	02709463          	bne	ra,t2,80000648 <fail>

0000000080000624 <test_29>:
    80000624:	0210009b          	addiw	ra,zero,33
    80000628:	02009093          	slli	ra,ra,0x20
    8000062c:	0110011b          	addiw	sp,zero,17
    80000630:	02111113          	slli	sp,sp,0x21
    80000634:	0220b033          	mulhu	zero,ra,sp
    80000638:	00000393          	li	t2,0
    8000063c:	01d00193          	li	gp,29
    80000640:	00701463          	bne	zero,t2,80000648 <fail>
    80000644:	00301663          	bne	zero,gp,80000650 <pass>

0000000080000648 <fail>:
    80000648:	00100513          	li	a0,1
    8000064c:	0000006b          	0x6b

0000000080000650 <pass>:
    80000650:	00000513          	li	a0,0
    80000654:	0000006b          	0x6b
    80000658:	00000513          	li	a0,0
    8000065c:	0000006b          	0x6b
    80000660:	0000                	unimp
    80000662:	0000                	unimp
    80000664:	0000                	unimp
    80000666:	0000                	unimp
    80000668:	0000                	unimp
    8000066a:	0000                	unimp
    8000066c:	0000                	unimp
    8000066e:	0000                	unimp
    80000670:	0000                	unimp
    80000672:	0000                	unimp
    80000674:	0000                	unimp
    80000676:	0000                	unimp
    80000678:	0000                	unimp
    8000067a:	0000                	unimp
    8000067c:	0000                	unimp
    8000067e:	0000                	unimp
    80000680:	0000                	unimp
    80000682:	0000                	unimp

Disassembly of section .tohost:

0000000080001000 <tohost>:
    80001000:	0000                	unimp
    80001002:	0000                	unimp
    80001004:	0000                	unimp
    80001006:	0000                	unimp
    80001008:	0000                	unimp
    8000100a:	0000                	unimp
    8000100c:	0000                	unimp
    8000100e:	0000                	unimp
    80001010:	0000                	unimp
    80001012:	0000                	unimp
    80001014:	0000                	unimp
    80001016:	0000                	unimp
    80001018:	0000                	unimp
    8000101a:	0000                	unimp
    8000101c:	0000                	unimp
    8000101e:	0000                	unimp
    80001020:	0000                	unimp
    80001022:	0000                	unimp
    80001024:	0000                	unimp
    80001026:	0000                	unimp
    80001028:	0000                	unimp
    8000102a:	0000                	unimp
    8000102c:	0000                	unimp
    8000102e:	0000                	unimp
    80001030:	0000                	unimp
    80001032:	0000                	unimp
    80001034:	0000                	unimp
    80001036:	0000                	unimp
    80001038:	0000                	unimp
    8000103a:	0000                	unimp
    8000103c:	0000                	unimp
    8000103e:	0000                	unimp

0000000080001040 <fromhost>:
    80001040:	0000                	unimp
    80001042:	0000                	unimp
    80001044:	0000                	unimp
    80001046:	0000                	unimp
